(dp0
S'buildDestination'
p1
V/Users/antoine/Informatique/LD30/archeo.html
p2
sS'saveDestination'
p3
V/Users/antoine/Informatique/LD30/archeo.tws
p4
sS'metadata'
p5
(dp6
sS'target'
p7
S'sugarcane'
p8
sS'storyPanel'
p9
(dp10
S'widgets'
p11
(lp12
(dp13
S'selected'
p14
I00
sS'pos'
p15
(lp16
I10
aI10
asS'passage'
p17
(itiddlywiki
Tiddler
p18
(dp20
S'text'
p21
V[[Scratch here|bone1]]
p22
sS'title'
p23
VStart
p24
sS'modified'
p25
ctime
struct_time
p26
((I2014
I8
I23
I7
I3
I11
I5
I235
I0
tp27
(dp28
tp29
Rp30
sS'tags'
p31
(lp32
sS'created'
p33
g26
((I2014
I8
I23
I7
I1
I31
I5
I235
I0
tp34
(dp35
tp36
Rp37
sbsa(dp38
g14
I00
sg15
(lp39
I10
aI150
asg17
(itiddlywiki
Tiddler
p40
(dp41
g21
VThat prec
p42
sg23
VStoryTitle
p43
sg25
g26
((I2014
I8
I23
I7
I34
I18
I5
I235
I0
tp44
(dp45
tp46
Rp47
sg31
(lp48
sg33
g26
((I2014
I8
I23
I7
I1
I31
I5
I235
I0
tp49
(dp50
tp51
Rp52
sbsa(dp53
g14
I00
sg15
(lp54
I10
aI290
asg17
(itiddlywiki
Tiddler
p55
(dp56
g21
VJackDegree\u000a(Antoine Chesnais)
p57
sg23
VStoryAuthor
p58
sg25
g26
((I2014
I8
I23
I7
I15
I4
I5
I235
I0
tp59
(dp60
tp61
Rp62
sg31
(lp63
sg33
g26
((I2014
I8
I23
I7
I1
I31
I5
I235
I0
tp64
(dp65
tp66
Rp67
sbsa(dp68
g14
I00
sg15
(lp69
F150.0
aF10.0
asg17
(itiddlywiki
Tiddler
p70
(dp71
g21
VA bone! A BONE!\u000a\u000a<<if $career is false>>[[At last!]]<<else>>The greatest is behind.<<endif>>\u000a\u000a[[Are there more?| more]]
p72
sg23
Vbone1
p73
sg25
g26
((I2014
I8
I23
I7
I28
I10
I5
I235
I0
tp74
(dp75
tp76
Rp77
sg31
(lp78
sg33
g26
((I2014
I8
I23
I7
I3
I13
I5
I235
I0
tp79
(dp80
tp81
Rp82
sbsa(dp83
g14
I00
sg15
(lp84
F570.0
aF290.0
asg17
(itiddlywiki
Tiddler
p85
(dp86
g21
VYES!\u000a\u000aAnd...\u000a\u000aLook at this one!\u000a\u000a[[Its...|more-bis]]
p87
sg23
V more
p88
sg25
g26
((I2014
I8
I23
I7
I5
I39
I5
I235
I0
tp89
(dp90
tp91
Rp92
sg31
(lp93
sg33
g26
((I2014
I8
I23
I7
I4
I20
I5
I235
I0
tp94
(dp95
tp96
Rp97
sbsa(dp98
g14
I00
sg15
(lp99
F290.0
aF150.0
asg17
(itiddlywiki
Tiddler
p100
(dp101
g21
V<<nobr>><<set $career to true>><<endnobr>>4 years.\u000aThe department will be happy.\u000aResearch paper.\u000aCareer advancement.\u000aI knew it all along.\u000a\u000a[[The greatest is behind|bone1]]
p102
sg23
VAt last!
p103
sg25
g26
((I2014
I8
I23
I7
I27
I17
I5
I235
I0
tp104
(dp105
tp106
Rp107
sg31
(lp108
sg33
g26
((I2014
I8
I23
I7
I4
I20
I5
I235
I0
tp109
(dp110
tp111
Rp112
sbsa(dp113
g14
I00
sg15
(lp114
F290.0
aF10.0
asg17
(itiddlywiki
Tiddler
p115
(dp116
g21
V[[It's.............|physiology]]
p117
sg23
Vmore-bis
p118
sg25
g26
((I2014
I8
I23
I7
I6
I3
I5
I235
I0
tp119
(dp120
tp121
Rp122
sg31
(lp123
sg33
g26
((I2014
I8
I23
I7
I5
I42
I5
I235
I0
tp124
(dp125
tp126
Rp127
sbsa(dp128
g14
I00
sg15
(lp129
F430.0
aF150.0
asg17
(itiddlywiki
Tiddler
p130
(dp131
g21
V//heart pumping. fingers trembling. sweat dripping//\u000a\u000a[[//breathe...//|physiology-bis]]
p132
sg23
Vphysiology
p133
sg25
g26
((I2014
I8
I23
I7
I6
I47
I5
I235
I0
tp134
(dp135
tp136
Rp137
sg31
(lp138
sg33
g26
((I2014
I8
I23
I7
I6
I5
I5
I235
I0
tp139
(dp140
tp141
Rp142
sbsa(dp143
g14
I00
sg15
(lp144
F430.0
aF10.0
asg17
(itiddlywiki
Tiddler
p145
(dp146
g21
V//once...twice...//\u000a\u000a//breathe deeper now...//\u000a\u000a[[//calm down//|first-hunter]]
p147
sg23
Vphysiology-bis
p148
sg25
g26
((I2014
I8
I23
I7
I8
I7
I5
I235
I0
tp149
(dp150
tp151
Rp152
sg31
(lp153
sg33
g26
((I2014
I8
I23
I7
I6
I49
I5
I235
I0
tp154
(dp155
tp156
Rp157
sbsa(dp158
g14
I00
sg15
(lp159
F570.0
aF150.0
asg17
(itiddlywiki
Tiddler
p160
(dp161
g21
VIt's [[HUGE|monster]]
p162
sg23
Vfirst-hunter
p163
sg25
g26
((I2014
I8
I23
I7
I9
I12
I5
I235
I0
tp164
(dp165
tp166
Rp167
sg31
(lp168
sg33
g26
((I2014
I8
I23
I7
I8
I10
I5
I235
I0
tp169
(dp170
tp171
Rp172
sbsa(dp173
g14
I00
sg15
(lp174
F570.0
aF10.0
asg17
(itiddlywiki
Tiddler
p175
(dp176
g21
V[img[monster_in_forest][begin_hunt]]
p177
sg23
Vmonster
p178
sg25
g26
((I2014
I8
I23
I7
I11
I27
I5
I235
I0
tp179
(dp180
tp181
Rp182
sg31
(lp183
sg33
g26
((I2014
I8
I23
I7
I9
I16
I5
I235
I0
tp184
(dp185
tp186
Rp187
sbsa(dp188
g14
I00
sg15
(lp189
F850.0
aF150.0
asg17
(itiddlywiki
Tiddler
p190
(dp191
g21
V//Your hand tightens around the shaft of your [[...|weapon]].//
p192
sg23
Vbegin_hunt
p193
sg25
g26
((I2014
I8
I23
I7
I45
I18
I5
I235
I0
tp194
(dp195
tp196
Rp197
sg31
(lp198
sg33
g26
((I2014
I8
I23
I7
I11
I28
I5
I235
I0
tp199
(dp200
tp201
Rp202
sbsa(dp203
g14
I00
sg15
(lp204
F430.0
aF290.0
asg17
(itiddlywiki
Tiddler
p205
(dp206
g21
V/% Place your story's setup code in this passage.\u000aAny macros in this passage will be run before the Start passage (or any passage you wish to Test Play) is run. %/\u000a<<set $career to false>>
p207
sg23
VStoryInit
p208
sg25
g26
((I2014
I8
I23
I7
I25
I21
I5
I235
I0
tp209
(dp210
tp211
Rp212
sg31
(lp213
sg33
g26
((I2014
I8
I23
I7
I24
I55
I5
I235
I0
tp214
(dp215
tp216
Rp217
sbsa(dp218
g14
I00
sg15
(lp219
F290.0
aF290.0
asg17
(itiddlywiki
Tiddler
p220
(dp221
g21
Vdata:image/png;base64,iVBORw0KGgoAAAANSUhEUgAAAZAAAAGQCAYAAACAvzbMAAAABmJLR0QAAAAAAAD5Q7t/AAAACXBIWXMAAAsTAAALEwEAmpwYAAAAB3RJTUUH3ggXBSACZB90fQAAAB1pVFh0Q29tbWVudAAAAAAAQ3JlYXRlZCB3aXRoIEdJTVBkLmUHAAAgAElEQVR42uy9QXIkyZIl9lTN3COQVdXdQw457B0XXLBnx91wwz33/wZzgC/yD/JF+gAU4QH6AsMLUGbFXc+Cws0sOMIRynD6V1UC4W6mjwsz81C3sACQVZkJVKW7CBJARGQAiDCzp++p6lPBcf2mrz/+QQVAACD1Jrq7zd/29/9gPF6x4zqumz0U3B4SANp9Hn34i+7D6ucMINXPbR9ue7Du2931W9yfciyf3w2ItMXuF/MBGsd1XK8HkVj3kT4DJP252cAiA1gqaNin7rs//kHl2KvHdVzHdVzHdVzHdVzHdVzHdVzHdVzHdVzHdVzHdVzHdVzHdVzHdVzHdVzHdVzHdVzHdVzHdVzHdVzHdVzHdVzHdVzHdVzHdVzHdVzHdVzHdVzHdVzHdVzHdVzH9du/DiuT4zqu38j1w59+kDv7lgDw459/5K94TrTn6G/rr1/yc47rAJDjOq7jehvQ+NR9ym5/+/+v7jF0X4/MOPv7+uc/wOQAkOP6ytGjf93Vfc/Be2PPHA7HJv59rxf9Bf9Nu/UjL4CDX3uvBZMhYB1r8ACQ4/p1m1yeOez7Td5HlX2kyMFz2HMg8mtkjOP6zQCH3lln2rEODtaYvbD3eyB5bh3bPTD58c8/2vEuHgByXC9v8Hv2zv3tfRToN6rckQhwR2Y4gOTbA4/wSkCRO+yWA4b70hrkK4IYu/PYg5EcAHJcdza3PLNh/ab1B0HsHmd3nuPehm33WbdxbbCxDyD5ba6tUZ4jDPaqf1wc7GN1a0bvMFx2bCV268uvqdyBRB/Q2HOs5GAjB4Acm/sWODwD0S4SHLGPXmLQDjBG+Q8OwCEPNm4eRIR2gMhvGjz6w3+0/rR7nB96FHArY9E9ZiRHtefId24z7Cfu9d9zADQHiBwA8s1v7jDYxKPbelkrdgcA3ca/d7FjJ+22PAAN6zZuvhMRHiDy2whQerDoQUG6tRYwnpoX6vsdAIiS0a2D4NaXCJCyCAcBSz+WVTo2kjrwwGA97kDlWHsHgHzLrMNvUO2ovzpAkS4C7OUGdo9rckOom1IdGAiAFftKrDzYxH7ecnpJ2jo28m8GPEZrSAFMA8BonwMAKKkuaAndujUHMuIOfphIDwJpsN48kOQucPHBzgEiB4B805u6lwj8RowdWLQNHN1GDwO5SgcygjrA8JFczy56oDB3Wx78P3ZfHyDyvsGjX2u9PNrWV3SP8R+q5PY993m3viIr+++ly3OYCFBme/eAsbg1uGA/C7xnyjaQsw4QOQDkm9jYUwcaMgCJ6DZ6A5TJbfrYRZDBPSeFbNFhro/NAmQWaSHXTZwGG3Kpz7O6zXyp9yX3ODtA5DcDIHJHjkK3tjzjbWstVpkqcB/kiJbHbDkQIaaOHSjFMZCyFjcWS5G1Awmr6y+5NZg7EEnPgMix9g4A+SbAo2cXTTqQTkKInXwQ3G0eWAAgCDnVDTZ1DGR1skLqNl+mSO42cdvYa7exvexA7BOio+TmsZHfL3j49RMAnDoGPAGY6pra1qEWIJnbulNCeV2b1q09cQc+KcgEsgK5gklbe6kDi+QCmNWtvwYcz4LIse5+X1c8XoJtU88dsLYNPHeAEettPhoUAGcX5W+AIyQcQJzdz2hSVnteqweF155NyAwguYjQ50wu7nmy+zmGfUnnS93Ix/U+gjnPdnvwmBxwzE7SigAmKeAxARDhlSlL+fDABFbwoJNFhTABMgW5AUZde5ki0a3LtQMfc4wEjlm3n+klWv7wpx/kAJEDQH5v4OFr7sOAcXiWcXKSQgOZBwcysWxiTh3L26QsuS3jTe6gN14juRblxfp8K0WCA44GIlI/wzGRUanwdtuxkd8d+wD2Ce9QAxUPFA91Hew+pHwOQgQB5rrgZl7X3OSCCkr9WgCTAiQ04LEELDAIZgArK+MQUuu6W10Q0gBvdUwX7v5RmbocAcwBIL9H8AjuoG9MZHIy1uw2dGMkH9xjfJIzSklo7sp36yaHYwo+ca5ethInTdWoMjkgWSnSNu5Sf5+mSy8d2/BsJR+b+F2yjh5MpAONJlmd3ecI4CTl6wAgKHFq+5klyAlSP3gFpsYO2gGfWQKWrMCZZa0sADKIFYK13hYBPDmA0/o43+0e3fMGt56DC2gOFnIAyO82GmygAdzmPWYHIlNlIacuEoxCnj3TYN3ATjZQKRLDqPPYUMJDrzmfpGy+xMIwEoCLlMTppQJJ+78R+8bCBfuqr17SOq63B44G8uiYrrjgpK2/k5BtzX2QdhswS8l1THWtnaSuX6nyqFyBRYS7kt4MucltZBCXGsgslYmkuuYWijxh747ggcNXAOqAmfxWzoV7FkX3ArCX9tTv1gD1m02iu3Jdv4E9SLTPD+6+Fv2dHag8AJhRq2FwzZOo7L8ubVty03x4pfvc9XesFCy4Akdi2eCPFRwuFUTWGh0uuFbJWL1/VAK829RHJPhmAYuvzBPHYoMLSh5awCLkQ/3+jCJTfVduL4/XEtBEaf+3yFmRwFTXnFZuWoII1oNesIAgBRTgiWWdPVXmsVKwCJDsuu4SRX6q6+upfm7rbakglLCv0Gpr790m050jwHPg8dzZOcoz8jkQwe+gMi1+oxu5ZwAeTAR7/VkceJzc1w8ORNrHVMEi7ICjLUyB0CXNax9wYwY+Ikz1cFgBnCqQPNVIMrBsXL8IJ9z2gCjGHkaHjPX+Lt846EvGfdFGYx9nBR4MmAPx4O9viXRxgZAASl4ruoTbmjEAmUWqMrlWAy5S/l824EmIMwUfFQgG/IxrMUiuP7cl1lui3SfR5c6h+y5kLNcwjBeAo8/j4BkGwhfA5ea2H/70w282mPtWJayRt5AHC5/78OBxql+fd7cVaeE2kX5t7CpNW9xKLZuclVmTmRvzINKmRUuruqnPKfhYe0VYH0MhM0sXcdO2V+xtLYC9Hp2P8/rdMP975py+aGNyifO55ipOgfiugsVZrsHOJMRcmcdc74+OCfv1YGhJdCLXZPqTCCZWJqFANOBjBRGpkY4JaRSZse8TCYO/S95bsDJgGvoMcOid88I6tuGLVEZu2SPnYg6A5DfXdPnNAUjHPvquct8cGJycEB2QNPZxAvA9St6j5UXCVhEDaD3sRYp8sLGcLpzxXkMEkKQBAfHIegCwPEeA4Cd0jYN1Q7eafA8c6ZnD62Ag70c2lm7toWPEcw04HgBEYUmo61XSikJ8kOtaneQqg7U8nKCsI7buc5a15vMfCmCtgHMi8LEm6rVSliwFmLKQM0WWDjjCjk3vo/M3BZIOOEag3Ttp33Mzhgsw/d/jXZB7Y9OAfbFM/3+sf60aK3nvzCR+4xtYBpu1MYiTAxIvIcyo+jOAE0TOKHX5s9u0sT55kP3h0BYTdG/XvW061uQlr9VbrdpFpWjXZwgoRDLZNuqMa86jAVVGZ6A32sBHRcy7W5O+0inUng+p5bmRBThaNdaDADNYkulORj1VuXPi3jWhVV0YQBNIroDRHBGEhEIgIBIEZwGEgCpLxRZky8ct9Wdl7EuP12ei+jdZZxU8dPB76QAw5M5t/v8Ixj1WNgAV3pGWPaBoByjs5b73CiTfFIB07KM3S/QspOnPvgIrVubxAddE+ofKQE5eRnARirL806LIJiP1m6p9rLU2P0ipftG6YlhZCaXo1hmCVQuIRAWSkZEireTSBotfX9Bxj+vtAhi4tUEf/WoBDRVigkCVhV1sbKN834KXk4AnQmYBJ0Ia+6gBCNvPrIUVm/HiQpSSvpozAQtyZMpms1PYemHBBYxIYYEk7dYXMc4pfFUwccAxAgBfyCAdcPdMxD8+YzxBlAPJ2FdGZuzL9UMX5HHAXm56t94bkMRvdPPKQHPW7mvPPiKuOZC5gkhjJQ9Owopy/X/Fk4g3jr1okoJrKGRlHq2/g+D2gNZc2LTm0q1OXGqPiNqeQemdaOq4fhuAsoG8kOKDASFEa3BDQAJLrqOuuVlQciVKThTE+r1WiQsUqBCsebe8P/gJyObLNpMCAgbWZkJBsJq/E0IowxG4Ovjb3iRYcQnyPpDy+6QvXujt8xW3g71ix0CA23koNpCoPHiYk5t7VjKaIbRjNu9JNYjf+KbtI5ReympsxHcEN5nqXJPnQa7A4quvploq2aQDxTUfsv38lkD33ek1SW6gY0SyuawuW3kmcFFiNsGiRCAYTeSCsRV4wu2AoUO6eh8XRxGtssT6gZuEqa2HSK9BSBAwgFvw0rrSZ8ekFUWGamy2seNcA5RY5VESsMI6KIBsgU9l0sHkyohZNC9hKVC/lyB+C/Do7fD7IFG7D+9y3AOHuv0SOnY/mqPSGJ530wb2IxsaICT3c7yHnQce4rai8t2wkW8GQAb22aOEWm9o5+3aJydp+QTl7BbhdUYDoe6JQwUOyH5Btu9bLkMFrM1ZQgFzCTqB+nzqIj+VUiXT+k2EtxT8xQjwyH98vevHP/9obh2OegSuoXxlH7XsNldW2lirCmgVTFjXYeyCnu2z7CXMJoWiKlUBhFVn3hLklKq/hSApEEKsMpd1+38Ea/Qzkm6eAxJ+wT0+YhI9Mw+4LdkPHRuZOkDpz4mM26qrjGs5fXCgETq24WenqAOMnTs3bme2jMqA35yNfKsS1j0guTeoR7HfoAHXwT1aIzjUyK9Fi6ibF411VCCpzINwBwD32jRMmj4trUGxRoN0tvLiPEoEQQnJMqTtbTOk4xh/d6zDOumHWgw4WaMAEsjKmpwQZOHGWOGY7VX1JJRS1yG3+8Wx4ewiW2Frcq0/k3U9msCEIECrFVgUiAFgEqT6e6Usuwi6B4vR4fbZy1QreISBfNu7Z/cqgzqpGt3j2v6M2M/1Qcc6/CHvmUJwX/v5PexkMOvOgFGuhd1tb8bwDgnrFkx6SkvcWrp7WauBRJMRdvp1/Z5bQnwDD1ZtezNVNLktgQwoOY/y84sGHQRUSmnwIuQiQCBrZRYQrDy5KhnsWtLbb+DeyuSQsd4GOEascItEBciVTlogaRAEsjT7FddcloN9M0ZsTyhsjJT7wEh2IEG4dVdjm7JeKgjBpDj0AsgmSFq92QxcAKRAYaplwEqa7WWskbEiv9Rac5JVb0rpg79+/07uc89GMGAhwG3OQjoQ8cO52ugGP/At4epd1x7vP6QDqiZ7mTuvMwZVWm/FQr4JAHHeNuhQ3e4cpH1VibdcZ6eNboObamRoTaYSQvVaAWPVLVWkyQ68go0Dj5bk3DY/awe7EMsmY0vDomFOo5eu+sccoPE+AKQfMYtgZKg5sGg0ADmCFGe5Xs53ZOFWeNGemoU4ECXPfWUylZmIWxi8Lgwar+aKK0oTIayU+S6BsFyMFXO1NUlydUzwh6cPWtIdMPlS4OHzfX6WSj/wrQHGyYGCVxv8jJWI236QNsPH/02K26Fa/mxN7r7s1IBW9hzcfeo++36uvlJrFwS+FYh86wykr9/2aN8DxRV4yFZWiwoI1iLCGu2xgkX7D9AreGj1KeImaXE7SCowFNmCbbGVBGlq+Q8BghGqoJgIQ9XG81g6IO6DjB3n+ZtJV72MJSgHtJbzH9Y6v5XIkVuP0KrlwJcKILtJlBU0amqiMlxuLBnSveclQoFsCxowE2QQi4LNrXcB8ATImoFFgUzSLMgCwOw2mv4qQUrHPHrFoM8FeYPUU3fbCDikYyY+8Hxw79k6CAr8jJTmDuHzHD7XETpQyU7Kiu5zcs/bn1NvpiTEb3DzvuRbA+wn+nma6qMsPyHw5CQrq7RAK3AULbtICo2RAMWCu6ARpNXoNzARQgKBQEHaViYRKFApBfxVBmu5mBJcKov8gNvkn70X3fRbvn7884+slhXSMU+bjBJqJZQSpkTS2vujZKZgicSDEItJqcCTqxfV3JgJ9uOMpTBhXuVVotkpVtCB8Rq0WKhgVfuKcipVfiS4CrCYyAUstu9CpACsrqm1n0Tok8yfJf/h+rk8O/Dg4YHD5y7P2I8IDtg3DHsro8nJWILb3pb2dz44ecrnNVIHAA1Q/Jyf5MAhObC6dH+fYd/AmEcg8sOffvjqRTHfMgOxLu8guO0k9bRzS4bJVXvOcpWikhQvIhamQVVuEV47yVVKnmJLfJb7aJs4XRedCbU2dQVCIoAYBKuU2n8WN0YEaU6qhKmgSRHSbd4DNN7n2vPsQwWlfDaUIMIm0qqkFAOQ1YAKJqnmQrKwjZ9FbkCACkAsCXfd1h431mzgrhqrfW8GpDoHZAWZCDwFwZpFFikJ85SFJLBOBiaR7OxQ+kRx7oKXzyVH9/mOvlpyJFnNAwZyxj6J3qos+74qL5P1/R8+Ab504JI7+WpybKSBi3cvbmACByqxez3VAfKb2xIdEwmvl6ff6FiGbW8ymaq9SKjljo2inoWgFjAwLfKC1uavrYZfagKzbmzZJASgTfdoUeM2CMiExceIolpmVwcWtpGr7YRRYJXtWNofTH6Bf1E9+rh+VS5EHzLzKggCWDQkIeaJoAlsMuYCHmVuee0Sb9KpgRtT9Tk5lM+lJhilt4QQaAUgvwiSFPnKWEt2q9cVcqkMa2MDMiBPFFgBOmYSeVHx+j/vSHWfI0Luq6tGyXLvCtFkqbO77eQYSmsQ1o6ZtLNxxj6xnXHbz9G+PnWg0mzu6YCigUh0ALFgPwa4Dezy7Ce6c6pnH5vB49dmIQeAXCOFgL27qLkooE3/Cy4iSKjGc1rAYa3AwMpQWCtppAIL6m1TawLTa0Nh6QzmdshHKw6KYlK62YsPEcttpa/LquBtKAN/CJHMcQ4EOJLn703G2tnNfJ/MAISJwDnTFhWeCmgsJKaTlQOosA629WW8yqZNFmmVP15SraaetTTLClNxLge8gocYgYUCiHGl4JIFyUoDawoi66o0Emsp5ZWlyleL2z/spN7P0lg4MET0AOLn+PivPeNo4NHYxkMnV0247afx8tEo/wDsS/DpJKr2s59wrb7y83ou7rmTe34vlS24bTpM2E96PBjIG+dBfNeo34jmgOPUogghnlB6P5aaHE8CRK2RnpZNq21jKzhp+T40cyu5AohISYqGwkUQqg6dqomd1p2uQmQDGEoWvzaSSRZCochGIhdr9153tsFrcFzvaC0qwUi2wGQ+G1ctwYZMxhRqcKFA0mr5L4ApuBrkJCCVm+VNkbdKYLJJmXXtaesir+uwgUjNvzEnAZV4IrCSsCCyFkaCBNBgkkyQJkOC0khJP+MmB3Kz7n5NZHzHEDHiNvHtnSMa8/CD4fw00QYms5Ou5sHzoZOu2oHfmyCaY2GzA5MZZSBXdEyE7nkmx0YecWu86PMuiv2oahvkaQ4G8oUlAw7oYHZv6OxApCUo20zoC0vT3pNsVhIISmplFkFY3EsFCApKlbHEJdJrZQxbo6GwmdsV6WqtypZUkZq1GoahhJYGwgxYAdJQ+j7qH9JHgH30d0wjfD8sBO5QwA+JtPI+5uqhZifjCiAW6Yq5ypRZWauhisJkm7UImmxVP2+Vga0vsRpplcez5k22w59AnopMSpbpg5nkaoBlAUUkQbkaJJ2Mq0DyU9iV8/bMo03d+7V5kL4p1stYwYGD7yz3YxgCiofdg5OuJvc5OmbiZbHePy87aQuDvebnrvi8kD9vtAOTNou+72NZcB3a5XMm/e90Y7r4tfZ2/IY2qzwDJH0T1OrAJFTwaJ2/IqWsVpQQBVueI2qRsYKWqpdQyyyDAAwEhYRUVlEjQci4sa8W87Ml1tEiSxNJYlvSNElNoEYrSdMku1xObyd9AMb7DGzsby9ZLio6ERbKOsmByIHkVJLnTwAeYkmgp1rwnRqg1BLfxkBarxG3vEdlHo1xCGFlLABBEav5Nqs2JdkqIJlwEZTk+USkVbAqYKsgQ4VTpq16s+asy3v8KvBw46f94drnPibcTnL8gGui/MEBxMkxk1Mncfkqrr7ABk5G6q1GMPj7A65jpvv8Cp0UvmCfrO/zK7meQaFjd/kOCzkkrK+waYlbp0xfl706IJH6BlKAqAUkTMHQpKlALKX3g2sokwdbBYzVLuLQuotrbX6rykKNEFly6eX3q2zFmnV7/YVzJJMJVhA5Q3IBJ+ZFkcFmjiccyAh3E5vH9eaBDT9kMhqQFPyQmTJwCkCajDRImskTUaonlCRFspJbxRMds6zTBecKGHAgsp0ydQW0rqMGQpA6KMSK40EOpRIsZRGsgnwiORGXSbAuZFpVbDLpjQD9ZL3PUYHVW7F78OjzHk3WOjvmUYa/lfs/YO9rd8K+UsvbFwXcNuD2eR3xeacOGODktOxyFi0fculY1RPG7hEN3DgAjlFAfADIV5KxBPvGHThtUZ1s5Y3ZLmjSFXGp4HFRMgYiamEYoTKVUGWHrFvfB6R6HYm2N5ytnJKlpgpgbc4q9fnFRu+JwFJtI4yAqTAn4JJFUu1U3so6Bwsa+LzVMMf1GUHkv3nKeAqSfw4SIiEXFQtkjESKxokCzsa1Mow1GnMuuQptLefC0pPEzmrDzZIJNT8iUtagVYRpNiciQC7rqZTqWu1Kz8J1LuCSkghq7sOmTPsxoK/A+mzgUZsFgfs+dQ0gvBWJl63mCh4B10Fw/ZyfqcubAPsy3lFjLrB3zvVlvt6Tqx8zHd3B/wG35b0+oDXsc7K+b8Q/rmceX42JxG9to3bRuO8FaYsldRrjk3uzqESI5CTEJRJBiRjAEIhJCA1F1op1/nlSIiqYSzK9VM5U+ctbuLfRH2YQSindbJbZyQRZjFJvS1Lq89dAJCkHDQQiBljkjkLbwTx+G9dEyHk1nLNQCXsKklMplaUCVANqOW8LcFjYCFK1WPcd2XB+Wdv7XgsvWm4EFXRa/0czbmy+W0tZhiXXNgM5C5YkkiOYStK/RMP/Ysn5/34IO1fezxygjIY8ealJOymrgUQbP3127OI8yI3MTpqau58lXWDpz4wJ13JbYDzOtgGEl52yYy2NifQDuWYHGN5u3udD+hzNV5exjiqsets50wK3AR6to9tSidVylq1J6LE4oxbPqwBqIDQaJJBSmcYsKN+X6ixozZEkqYnyJmW1EaNsh32RE8g6yKe6oCYCFyt1+a3S47IqVmUxuxNihSDVLvTenwiOheAzyQrH9SuvP/6hKpj//mf8f5NIIOT7VHgoBfKBkCTIkyGhlNKChbl6+4wQStc6TSC1nLc1FG4nSkl3SO05bUR3u19w9dlKLEn0WL/PSkhtGBQlLanwu8y8GnJS5P886S7P9rnAww2F8rmH1gwYOxYydUyir7L6Dn6Wz/V+7Q5pD1LRvc4R+27zdojPXaDWV071szx8Y6EvGb64oK+1DszYV2kF7HtSRjbvh4T1NTRnAPgvl9wag6bJIKtey2+zIFu1tar2DyELLtGgM4tFiRKXAhicAhEjkZRMWkBGKpCYgs2agnKNDstn0NOCOp1QDNdKGNsoa9GjF9aOc5oYlCkSdimG8Vmv/QCjCqzjek/A4SLXf7YWFepjEA1WG38EdgKQBFFtmyJozYmgzudIbZ0Ebv0fzfyg63FiSa6XJP3GVF0pr2mdQkjXVU0gzyStrLs0kzlXA/mYgb9ZzT5jvmOU++i7z4M7vzyQRAcYjXV8cDmOs/s/M/ZJeC9Ve2sTuIN66qSlliMJuO136Z0GsgNAX6yT3M9ugLS4n/WE21Hb/djqA0C+9vXffkxyMuKiIt8lMilCrmaHWQSrIjbn6ywiWbCuCgTWiBBctER/KRBPoeRApso0pgokS5W2JimOqm2WQ+sIptOfjVtjIMFq281yQJTqGsFiQAJlBZCotJhhSSSXEQ3IJVV/Uw3yuZOax/XrwWPYEPchUy4CPZEBgKwicQZpImbXA0nrKSXXIowbbd67Om9yFQtLaSREtFBef/CpG3K21v+cyoKS1BJqgczlLxH+9z8l+zf/6/JZ19UzTYOCfcVUu91XYZ06RtKS5SeXM2my1zyQxqbu5/ZDsxL2lVTSsZe+h8MHccn9v+DyI3RsZsY1wd7Y1cX97Wv3f9X9HkcV1pdmIf/Tvz7p36yGiwoeg2g06GmlLYppVZHaboFFJJpADRQT6KoitRy3zImuzVyhsA0NpIWigq2VmZwDm39RGSVa+kMYCZFgFF5HhCqvNKRFKy1pmiiS6k6v5ANilGSlxDIHYpXSjNbbaNvBRN4dePRTI32CVU4sh2MSxECSAo1GKVa9ENaCCZQSbkWpoNLKKtpMkF1fCFC1qzLZEC4/sh2M4nT6+hyhBi9BBLl6uEEoMpE2Ecn1JH7uq7doH42m7Xs+pu7j1LGS6MBhdjLQqDS499vqZ5b3bt2xA5M4AA9g723l2UfLqazYm0BOuBbzTC5fkrq19CZ5zvhNbuJ/WvEfTio/JOJjENUiT+n3iXIJMlmlsIvKJEBIgimLyCoMAkwKaC7lvFKT47l6BdWGL5gW+4iEUnrbrCd4FTALdIiVyLFZS9REZxvuAxanRdMiIWQDjCIZRDpnsiZa7SkITkY7m/RePHDs4wCQ9wEe/fhkbwS4JYQjESIwrfUwr0w18dolLVWyjM5Es42qHR1+EdwNn/J5OLRJhkIEKbm0VuhhMEjcKoW44raa8UsACAbA4ZPmwK3j7oTbyqq+TyR0oCHYJ+VHs9GtA4cVty69TVrydu8+6d7eC2/vvnaSlgfCJyfZ+co6/5qsHVM6JKyvIR9MhMxG/S5RVoVcVIISp5mluGUVTFMxS5wNwKKYH2oUwDKbXFkAQ2SbAULo1aU31WR7rpp1G1XaosM2fU7E1/GXk6AtlmwQhlo+qcVF0UxoQZCTyBoKuKyZyICYjS21j8T5+wMPvRNB92OUZaqNp1aayKeaCYfJdfCZ+kOXrhroWqHlE8KNgWxRvjQ9f+sNwUmBH905IZ0+T1yri/jHPyh6ufTv/8F+0YE2kK90ACq+Mil2eYvWKKgu1xE7duET3FP3vP37hI6t0L0GHLBKb2XSj1Pwr1Pv7hsccPS/c3BM5/Ic0zjMFLamDD4AACAASURBVL/CJv7ni8mjSlQwnDPCbJwXlQhiyoI5EJNmxlVlzgKdSM2QEwpwnAhMUhuWWIBgUlaX3C1iZJtVrYqy+2v5hFaJoOnYdFGKsCXTBajGeVZs3Qs4ZIgpuUJAFeQsIqdMm4RpoowsTA7m8faXDMDDezmdO10e2A87mrSCSJ1zzjpkapMoDfvS8CpbbcleuZ3Rsc3ulrFH3OSAJ3SRenIRd8KgX+KPf9BfDSbd6+cZCDpA4ECm8olndKwpO7Bml/dozznhvvNtGLy3/Ud/v5+d7nMWyYG03AE634fmK8L668iBfOFN3EBEH0obVVjLrPF4zpwpOBsQk8gDgEmNwcpgJzVgMkGonydUELHS9RtZZK0twaeltTzqfi611lXICjaocpVdpxyWrvSWBa2fUvMsUpBZgJnIJJIJ00XFyqD02/zHIV29G/CQ7mDzxn8n3Br5+STqhOqCUGORZodzHYd7q8/LIOL1UbLIPvr1jXhT9/mM/UCk3j7D5976Qg754x8UnwgiffmuDm7390Xc2ps0IO5nfIQO7FrwNrvXfcJtcly6PEefq/HTC6WTnXzVln8Pgst9hA6oYie1eUt5ufPzDwnrKwDITlOdiJiJ2QQnEA8RmCM5m+DBiJhFFEQw4VQqeBFYXHNPJqJKRkBi3dSxJSDLhmebKxXkGj3u6LFcDwSnKRMUmFjzwEKWktxkMVKUZAVj8iVInowWifwhc+d/dYDH+5FNsU/8+uTuCXtPptjp3R5o5nrwNyDpG8hswAZ6EDO5HZTUDqsTiiOsn8z3UKWrhwF4aBeZ547lbD5SnwAiI8mqlwD99/EZhhI6kOhlK38WKm5H2fZJ6jiQo2TAhvyhbx2T8Y2AofuQDvjDMzLZTT/bASBfdhP7N8FT4BCAKRBTAs4UnAU4a9GBp0CqCSKIYJCJgkhCrQKECSaQZ8oukTdXZhG05jrcZoq1IkbqY66lGFLLLV30VTyw0PKfRiCHWuqbShmypHIi8FG3tX2Ax/sLXnr5qu+WPrv10x9QJ7dmmzV5cAyC3EfXvWMt5DYR2x+4Lcdxrjr8yQHGd4PouCVxvQ1585FrB2TyOYBXgkifoO+Tx+wOdAyi/oi9rYg5oMFAluvBY+TImzcgIvvD2zceltdTpJe9ZPD6A7fJeA82/veyDjxuQPZr5zrjN7qR72nRcwQmEHMSfBDiDEGsDruhGNyRvFJiNUhQYCYwsbj0Trxu4lmuZZXaa6NX/yGC1XA7mpMciJWygUaqVV2opZWWBThnrlmQApEfg5gWG4l8nNfvbr2hizhbWWaTrr7vWIjvE/AsYRrkR+DkKMOt+R+6yJhdlNz2wOp+v+9wHaT2gP2gtd4KyOcV/EzwjFtjwE8FkXvylXYR+KiyKr7yPekBftRnUqvYOGIWfWCqG6S33+8KJq2jPHfvU/sZUwcy7EBs5CD+ZnnO+A1vas9CpI8KIzERiCTOtfIlhLphWaqzYIIplOKqqeZAgH05YRtLu5VOVt1aa/L8WoFhbInz60hSQFiGB7WZIXDdyDmyuKTGWjkzJ9rfXpL9m+PQfu/yqWLfr/CAq2PsqTug5u7gb5KXP2Bixw7kjkaOgeTh5SvffNeAA9hG2W6Hoz9kn7Cfb7G6v3HB2ISQf/yDygsgwmekrP7375lVxh5M+xnmMpDMvKWJ3rCz0tjpf2bGfvZH6NhDgM8DsZoHiEht57wHYDvZD/t56HIHUL/6IKlvHUBeBS61xLZVvkRWUJDKQJSINRci1T5ba41+AxRVIFIwCTc5qlqYXCuuXHXM5orqI0e9RphWO9Ol0BYwVIuJs91Ee8f1Pq8+Qm6VTmcHJNEdUt7PjB3zmO5IURzIPnKHDZmLfBtgJRQLED4jwT3imnD/2DH5kTYf3IF497BzJbwYRN02AME8eGyb2HfCfoiTdeeedQe/r4K7emMV8OjZXLgDdH2S3jOYJk5bqZMR7YANHVAD9+eN4D3s9295Hoin1d5nvzcyu7QqqtKGgeC05rl6ZzXZKqDU5oea+5jAYeK++tvVjSRucTQAKfdklOmD5bOXKQzC8oMzuDtkjut9Bya9JOFHs85O0vLDhPrgoCXfA25zADZgHLwj31h3aPo94A/5Xuptv+Mj9qaAK67Nb35/jRLrfOZ14h2WgGcOcu9RpQMZ79pMuf9acDsDRCpwxAGDM4ybKGXwWm8eWW7y4/XvZE1/XuWt0e8rGLtr93NJ3mT/f6tuvB7JPWg0a+UwkBzoBvQ0IGnywZYkJyuwVA2VdcRtt2njTjPltkGuQMa6sGvyXK7LkoLS7V6Bw1eaCN7YnfO4XgSRvqLGrzHp5KH+8M3Ym/3NTnrCHTmnB45+XXsWEp2k1tjOD5Vh9MypPfbifueP3TrP2PeLiDtU8QoZCxj3M0l3mPbW5iuuBQC5Y059Z7gH92s1VGEdOnjtvCOuyW1Sewf87pf3ztvemTdXNtKPAWYX4PbMjZ1kBhxlvF/m+vt/MLpKLL9wsltkK/YDpHpr5bOnl03eahuRVyAJvD53S6KL7COpe/X6fXS41v9A1PG1g+inP2S2DTlwfd1ej+Ms/6oBSx+d5i6Q6aNzDxAJtzMm4MBjxm3u457NyKgs1s/x9k1tDUQuVc4aWX5IB4Ttb1mxtwVJdwCNz0nIAybTu97m7n4fFPYJf//4gNuKrHtNgLvgTMZ5Bx0EqC3f2XvR9WwkV0krVxDp/w67s15yt5beRNKK3/Bm9mWGLeHnF7ZnJdlpqoZbMGh9H1vyG7fNSveo7r0F0p4/dweEDSLZne1D7QCWe7JdBRYeYPLVgpfXSKfZrbf2/k3YT7BrB8o0iIq9hj86jEf2GX4N9RPzVgcsF+wrwFoyv/0M31y4uN9bBmz+tfLyaEwrB6CSun3kD9bk2H7CvhzW77X9zyoJ7xv2Jje9WluHv399t3wH90aVHjRMrqaVHLCp7IC477HxMuib7139xvYzu2jFy1etZPEJwE+Vjv8E4C8A/ql+/AXFH+gv9b6f6+OecK1UyV1kpN3mHWmWgtvEJzvg0E4TlS5qBG6H7PReS9oBzl2Wclyf9RodEH4exFI/cqdt0zGR5u/kLckn7OeAj4KUe2aHo9ttsA7vSXBfunT0uZxA7h633tnP5mRp359iXaDWEtzSmQvLIEBsCkRTIfq+ju09qPdn96ZQup/tZPEMMm9J9v2I7YS9DXzG2DD1AJAvGQkOIr/ULbLFgcFHBxI/uY8f621/cUDz5D7WOwtV7tDe53TqPukouJ2F3IDD2zV4R9LerfSmXv4Aka8WvPSMwx94l279+ETv7MDiQ5WXWjK7d5FFx0R4Z53hjqSWO0a0dkDnD+O2Z9rXlwGT+hwSiwcrP9FPutczdXt76V5LDmSuXFmHuD2bnNwEcUytA43ieXe9vVXbiHD73KTt6zC563Na9/Nyd1szTVwGoPfm8tU3x0AciLBbaLnbBBeUCpOlfv65A5K/1Nsf3e1PHRPxjVSeVdggquurPLxWa3dovPctii4q9VbWU/d1DyLbmj9A5IuvuzwIXNrXT13w0g4P36zmgcRXYc3Y+zZ5JqIYNxNiwMSXLpJv+2B1++HRMfT2/cf60QDw4iLmjHFi+DUHHjEu3+3zAKuTzjxwWCdDP+E2t9DnG9LVjw5ZOuDpgEPE/VUVLMrHlX1YBRQTlrJ7XOeutPL9jPKzTBpY13lD9W9eHWAm3CbV8Qny4Ge/wre2mf/tPxL/6l/KvYVKjBNYwL65Z3SYex25bd52gHt9OeC2csov1D4ibYfJR7cxFsdyPJ2N3WHT20FLBxy7Tfyv/qXg3/7jkRL5wutuZKqIjin699FXPE3YW5aPHutlrf597xvV2EXdjW18dIfuz+62i2PcH+t9DVx+cmv20YFPcof8Tscf5d9O/+PJH4h9fq+3aun7Wia3H6XbZ1N3yF73ZWEfscpUkOtrR7mOXJA6k8UDhIw6NisYsElYDoBa7qMUxAgWLXmQRerrLO01FPnZBbCPHVimLgjZcivL/7581Q2s3+Jmrgv3uXLexb15Hzs566OLtPrI8eK0bP+8vBP9AbeNYugOFN8t3FtqN+uLBxTriXOVOE5ON28+S37AzoTxLOgjJ/LlcyF+rT25yLgduj/Xr9dOy/d79oz9/JAZt8OQgH2CvZdx2DHl5JjH6tb9U5VtPzrZ9i+45gPbx0+OmfRMpJdf+ImvF3BbfeTzAu32p05CW9zXqZOWe4nZKwary12YsMxfATcQoAOFBiLqhsY1hkKpjcBevtLy3KuWHq5FiQuuDOSjXM+QBfsqPM/sDG9spAh8w53oXXVMX/nUKkv8IJfs6GS/Qb1sdO6iBE/l44D1jJiQjxB7c7fGLtoimwdaMDsNPLsF2fyVGj2ObpEKjm72m+vv/pe/GxrXfaps8L8B+Bf/4Uf5r/7jT+G7nxeIMc1Ltpht0WwTgEct42wfcevA2w9N8oGAj6hHpbx99VDPuhP2ecCLC5A+1nXyk2MXP3eP87mQPmeSugP7lxx2voRXBhJ0wG3Z/YS9l9jq2MncSYpbTsKV3VKuoxG0AsrOMLFYZm/TH68zfegsVFhBCFumxXj9/prYZ33NZJOxjCKrOweWjjGOwPgo432rnEiNvL2PTujYQ1ucI9O1ZornGxFn3G/weU3Dn7fJ7sdwtp/XfpeL00xzJ1e0KKv9Xkt3uKy4bw/9Hg7u5/oYvtYleHlo0Kuu/+dvf8A6aXx4XMNf/dNTPD+l9OHjGqclrSFzyYLHYGxg0PIbzSE3d0Cym6WOsZPsKP/Bjh33lWELbgtKPjpG/uSkq+S+z05i9YHTTR7kXvn4j3/+kdXOZGQaKN0atw40vLW7l44n99rJDsjKwLbWLd7Kdevk+Gvfh1y/rhOptwUQCkCwb+yjO9UFkNxAqf4xFwFWAitle70uKLe1137tAtH+9TAcZorvTtaCW6Soso73Cordm7q4TTfSJkeylXW5k1G1VdsETw6QZgdwvRWGl8RCBxKLe66+U1j63+EXDP/5ksAx0sL5FYEDXdDQO75+MqD9p3/+Hf/qPz/Gx4eJ/8V/+jitU7Affrzk0yXlkGw1wUcl5hr1t/f9EVenVh3kSPxwIhm8bj2YyEBW60tf/dr2eblLl+dot/d27hxIRXxl9/nIALE3Ssxun3hpqvV1RSfPqQvy2uuVZd8MWRgIrwlu6cxQZTeAhVsHe538CGeQ2iaL1uFxpTyXQKrz5jMhqwCJxGJSmRwrABemkpwsZ10u6V1cB4C87spus02OvjcpyevaXlu2LsI7dcCBLmLMg03vm7LmTvN9cL/PvWi9/dxH3Ha5B+zr29+cgTjw6KfL9QnhL/37juZyD8ugfwGI2F/+5sE+/LyE//hff2/f/7jIMof5w8c1nh9XjckkZFuC8UGMjwC+l2tlTrO1GY1vbY4HPvpGJ2UZbi3Z2a3bxeUUWvL8J9xWY3kAWTG2XuEngscISHrLEg8e7fcF9qN2fV5ndeAxb895nelhNWfR2MY2GliA7KyIalKdeh3FsL3mWhmGULbnag2MVl22y9csjIlgEmDJImsgLgQuWfAoVwaSBmeLDYJRNvZ2AMj7vGRAH300tw7e6J5R9DkJ6RaAuCiy6d4r9oOH+jLgyW0SYD+9zEeXi7ttwT7Zqngn/lkVPHx0PXf6f8S+yo13ckhfgnn0jZk3TZmveB138sPjw2QnFf5FxajQHFRSVJwuKUxLxpSyqVHFsAopQpoQmQKVcvjNqE7R7Xfh1ZetH99qHTASt0lkuLXsI9/2dV+ue8H9fosb59jXgkeVsYDxKNje7iNgn+PzzMwcaKROVt7Wi5Om2otzla1Y+jwKWLCBxObUXfMk6vIoUN7koABuHljNkijZFojyCcBiwEqRRYiLlXk/Pq/EDlD6s+CQsN7xxe7w9wu2zU1YcevUOZoT7YFFXbSUBzKNdIfnud62YG/3vWI890HcfcnJYaMDT94BeAhux72e3YfvuJYXNg5f+X5+CoDEAYi8Jhcyyj8YVdI6BaMgf/wwl+lDCqVgzkFiXlViyhYyqZlZSQipUubhNeCIKAdbbFFxHWDW59Pkzt/m1+fi8mINTJ4ciPjmwb6JMOM2Oc9PBY8X3i/Ffg6HdbkB3wfS2MiEfTELsK+gKoNAebVn3wBlYx6Eq6rSJntVoNCNsXB73a1mzzfvK2ygIYuACyGLorCOyjguIngSY7KSPL8omUzEBvkq4JdXth0A8sZMZGQIZwOAAe4P8hmN5uw9jTy7ONXHPTrmETqpLLsDIXdS1WiB8RWH8FvJVnMF5Q8o5ckPTq7zLEQ+gYG8plrl3gxxz0DigIF8soTV3rMcNQFIy4kJmGGqzKrT+Wk95ZBPMWmc1hxCNtXMoMagwqBEgAFCBopEIUEpv6Nwc3/tbTZ6+47enNMXjuzKWrvA6VmZ6nOARsdC/O/sq7E8AK64naHSxjL0nfZemrb6AmWUOT4KXhPmWpPj6iQr5Zb8kHq71tkMdDkSdi6LCcAaQAPwSHABsFiZJroSeDJKyoILhUugLFluPNIw2N/AG46vPgDk17GRERCMPivuzwtgxz5Cp/1P3eZskVXTVxu9zbxuoJVy3VSsPbMUKCBKgaaokSq2TmFdpxCXOcjjh0l++v5kjx8m/t3/fP6aC9KPbG29K99X8Pi+fpxx7b4OA1nwl4AHX/m7jWQs+UT56h6bTTnqkrPaOtGAaEJGCxItpO/ims856DyteQrZQkymzJxoFAWjEEHICRCRZgJYp8y4CKEfbNS76PreCrsjb/nSdJ9YTwDWv/8Hy19wv/WluwG3VZHWgV+Ts5pku+A6YOoCMsr+HaEWAGgVWWVgz7XaSjrpqiDNtbGQes2htDxKLgl5uj0qzZ4kUZCNuFCwEEgQPgklkVizMAdKMtlYITuZ8F1cB4D8cvDw+QtfMqsDgPHlwP3hp10EmBwD6fVadZvD22SvdXQua0kgKJIpKLXkgmwiZirMQUEVUCCmwssphuUU7afvZ0tRw9M5yl/++vy1F6jva2imgR8qcPx1BZIP2BcU3Du0XwskLzGRvsH4s1RgDSSeBGBOUZMakYC85BApiCDmk+BEkRMFU0wyERKjmDDbBEEQw6SGADCgzUkl7w1A6plVwL6qy8tE6taun6OBwRr/IldX0ttXZSlu56T4390n0fv8ZMtDrEKsApzqYd8qqbKAk7CAStUFG8AU4GhaYc2DKAAtJcHbeKj69VbOXH4mE4EnAgk1mW6CZCIJwNKAI4lcZO/x5ZUGeEby459/tANA3r905fVkHURxfTmsdge/t2O/NwekPcfcAdTcadk+GmulnQsFCZBkipUiyYLkChpmKkxBLUeVFHXKQfNyCrZOQZ/Ok15OIa5TyJdzfIvRuOKkqwYeH5yE1WaFj3IgnwIg9x7/EivpK+bkMwJIOYsEcY2aAczrFGKVomYBTmA6CzmzjEAVASMoQcrUSxCIMGhRXKqOL5A6QFVlP6kPuDXz7CucgjuwggOR0azxrwEiIzaScVsg4KcpJsc8Zhd4fax/9IpScNDsQ6i12k8LO8mVdajW104LeJgQojUHUuQsQq+AkWuuBNr6S2qvCa/ARQJPFHkScs0iT0m4UMUCC4gkgRGydlKiDSTzg4H8hpgHMB4jyS4y8s6ewHhwTd/s56NC6w7VHnB2Dp4s4LFQJJnKakFSDpqySs5R0zoFS1HVgk7LpJamgHUKSFF1mcO6zCGmGJiiZlO5Z5HwJRerH6vaZoM3IPGmkBNeTlzzE97L1/6/z9KJfidvo2jVPALmIIwqc4qqIfO0TpzFwlT8mfKkplHqpAkpudpQfDQoApEyy0JajWrL5LZZFv3B388Q8SDSfKXWbk3iGdn2S199cGZdPsAzplbB2OS26GSsBcCTFP+rRYioBZiTEJMASbm57FIIUzBrkatCBQtEsjETqfdRC/uTVhLX8itNGqNgFWAFkU14EWBV0AILuAiwXlTW2bCqMF+CjGxXfOmuHQDy2wGRviFrdH9+Ie/RD4bCQBbwoOQnxnkNdK3gcSmylVxMJeegS4qa06R5nUJOUZGmoClqXKfAHERSDHGZQ0yTrinqkqKmHJQ5aGIBkHu5HL4igv81ADK5XMeMO87BLwCIvAAKr52N0f//zwEed4GLIip1IkWKiomUHARCRY40ywYLatmYQxZYkGwmWYRGQSnyZakWqn0I/RrqbUBGM2i8I4EfwJQH7/VXG5/spKxRsObZh28wDA78FpfDeiysABOK75Rq6e2wChpSP6cCCqz5jg04GEgqwVCeR5t8pVXKEsCUtTuddfx0YR9WX71VgJWlqzAFYs2CVYyLiawrkSNJE+l9u4B3UHl1AMivj4L6uRyjeR8cyE5yR75Cp0E36SDidmZAA49WYvkIkaes8pij5jXqspwi1kmxTgHLKTIFndY5RFOZ0qRLVk3rpDFNYc1BZlMth5DKqBTTngGRl27/lKi8bfBmBNmPFiZufb4+9SD/JfLW53qu/u8d9RShylls0mPIpKlYVsmhAIWZSlKTE1WMJgaQNXXuwUOwt+3oq7FkIM/1gZJgPLfmLawzRpMKrVsLPqmeMG4GpZAEELXIhE9KTgJoIJbCMBh0n+NQBVIojENCka8oIANL8lwBqfdbAZRy8BcgqZwQkgEugGQWvTEHgSUBI8v+OxktCSxTlofM/E/TzjByl0B/q8qrA0B+vV7vh9soxs2FwH2fmhG4GG670r3c4N1SF5RE3EcAPxP4SJE1q6R1DrbMQUpyPMQUQ8xBtLIRtaAhBVlz0GBB5hw0gaAFzbhfTcY7B95z1WfAy0lr3pGxgrvf69ojx9m3OsA+5/Ny9wmAlV5mmkqugJKzagpi7bZEgVGRaZJZynm1WGowDFiCdzrwVWX9WlTsy3t9ZP9Vk+h3WMiIfQBXux50f6e3adn+xmvym1KlrHZbiFW+0gIck5JLBY6gBJW0CiJVwiICS6mvlryJ1US7oLCSLYFeXzai2JpQSU7AUxZkq71kHzLWLEgXld4SKbvX411UYh0A8umRaL8p/Wdxb/g9a5FRZ/pIGtMBeDT7+EfWWQ2m8kiVpxzlkmLIyxz5dJ7CcgoPVbaSKmPFHESyKk0l5CATSpNStqj5BYDgHTaCZ3IlfOV9PQvxmrw3yWvMa7ojoeidA/41UtcvkcK+RGBSi3BFyhQiafJUpkimSjKVBMBMJbGUhWYKM0RWCP068nJU+0JxO65WuujdVwP6LnDFGyTRn9mLIxcCw36O+Cj3WEwSuTGQEGvSOxrh2IQKIBUYHhTISqYKKhoIU3JLpocCJNYYR+0VaQaKrRlx6/h3SfU1i1CBHDNzFqQswu8yTX6dFf4BIO8URDJux2v2o2qbhjw6jPSOlt9vCF9332wk/Nz2NjfiJxP5aKprmpQ5iKZJp2UOS02UT+sUhCpiKpKD0hQCSDAVpYri1mb+xobiGRZid4DnHgDfOwB6acLX+bfX3ffA6EA6lE86rF/fif/FD0ghFIQKIWJkbWYDi2mJQGqAK7KYSggZESILwIhyGCmK51LuJKwRU5AB8wjdezphX8305kn0QS4E2PeF+CT7in05bzN7pAIawCAEIxsAMARCAxEUTEos5XsGLfkQVSIGMtV8iJXPZP1alK4SppX0VimrJtKNAiqxWnFizASSkhaBdVWxycBAe/opil2K49bN/noP0tUBIL80QtxHur1G79lHwNiRl51kdS/X4LtQvRfRI4r9wUcCPwvxEeAjBYuVxkCsU5iXOa4p6jlHnakSUlShiJqApnq1g7t/+OsdKa5f0Nrlhe5Fh/3tfVd0/xq3aO2CsXfXPcB4CUgUz9vrPwcqXxJItHkuQRDUqEJOaoxCLEKuAi4gkxqhBkVtHLyOV2XzyLoJVmQcxfp1yI4Fru45rGPInwrYX1IR8KDhrUuAvQvDdb+WvEXLe3ycSFVCJnJSIhSWQa2AMimxBnIqLKTkPwJJLcnyLYlewYlN2iovJptVCmv1lSmRTZC19J5kEyQCeaq3rxCcMywLd+fHewKOA0B+OW3u3TA5iPJ83b12j+8juH4z+Mah5rXVDtKE60CfaqfNJ4E8Ang0FctR9XIKHy3IQ4q6pClMpogUiaaiFrSvuhkduvdyHKNI1keAvS79mpyKfz092/BMI+GZUbz4PGW1rwGkLzmPRIVQMapmBjGqGKMYJykafNLMFHLxFRASamxAo1K0/M1N9o4U+lxOR7soPrzAIN9Eg+9YyCCXdGPj45sLt32pxM8KMJJBiKeJnCfDEshZiSUUb7EYyLV+nUL5fiqVWDAlTV2vSGUgpmSuMlaq7ANSch4RxTpFtQBJKcQmEIiclBas5EYeA/jf/ZztH3+Y3i14HADy6SCi3fe9JtxvLnuGhchAsupnMyyOgfgxum162UeKfATxE0UuVMnLHIwqukzhkqOeTWXKQaIFbVVdvYusPpOvuWebfi+RDtyWg9ozwPRcjuVe97Q8I31h8D0Hj5OBHCPPsJTXNA7+qg0uRAECUpWMatRgjCFzDplJM4upojGEbKLGqdqYiBhUrFiIVyayza945jXpGbR/fW3wmvRJ9LfIf3gQQfe7jYKXCfuxCxMAm4hQEuL8OBmmQMaJ+DgZgwIxFEYyByLV3McaiFMoUlVWMteEOwLbDPRiexKq6WJlI83+hBUnWnPiNvZ6KhJXygIRKz1Yf71a/mcr8s9B+F6B4wCQT7jq+NvRAeKT6Bm3dfWjQ7Wfx9BLWL771LD3HPKT4h6FeBJwoUgKyZ40M5lKXuaoFmRNUS9pCq0ZcWRF7i2/70l096J0fYa1YMC2+qSrl8BGMqA9EwE/l+wHbq3yRyB3Ly/AF0CrB6/XbPAXmxuFhXkoKSFZnFIO05KnacmnKdnp9JS+C9kepzWvMZlpJmMxWISahTK3m9e+DW7Mrdm73wNdn0RHx0ZygKvEMgAAIABJREFUBxp9wPTV8h/PvK6jfEx2MlzEvgIrBDIBWCYDA3iZSQQiTmSKxEWIKRCXAMYqYZ0ERcaSWprbekKqfUnrRLdQx9nWvpJSaXUdm7sKsVKgsRTcpVZ7F4A0kXIypiTgg4F/lfjux0u/awAZTKb7Glr08Pq//s//N5wuSR8+rnJ6ShqyaUxWzNTICCBWM7t2QGfhMEnuD2zpNmRvybBNIKNszMNYGoxWCjJVnnLQy+UU0zrpusxh/fhhQppCG6zTGqlCBxg6yCf4hPqoY16fyUHc62vpD/RRVNwqf+4xEruTi8HgwCeeL6t+zgbCXsh5jBpDf0n/y438E5KFYKYhU0+XFNWo8yWfppTzfMkSk2lMxpAZQ7YpZEbNfKpM5KOQE4hVyIsbZtRkrf61sTtSXd+86g9hG+So3gxABj5Z/e/Xfu/s1hcAxEBoNGogdTKsgZhnwzoZnmKRqbIAKRC5fr0qMWnNZShK4rwaKJpWK3gFKdey3W2uemEoRYYloNGYCbGaI8mAcM7MoVZdTcS7B453DSAVOIBx0vRNIp9lDmVDESEmK55MghgSY5sTUPyISlQtZHRNXX3E3lPue/ONWfytNoNEA7BSZSXQPK6CBdHHD1N6ephyDso0BTrwidjbvfdGgKPXt7/Nd4OPvMDCgJ3gGfAPL+RJRvfZM8yjvy/jfjNkuJN7aoemvPB7yTMsRF6ZR7uZ+U0VSAJZSnQlJpNghpBM1ZhCNgiZhTQxsAyXogH1tpJon2rVT0KxJrfBvukddnnn/Uru9UodaBh+5Wz4LyBl9QUtftBU84uzcyYU0IkIZ4POxsvJGBUIkTxNRC4VWJwDi9tDJJIU2aoBh9Vu8+aD1WaL8CpZbbNAUCrq2HIilV2TAlgkcgGRu42lB4D8QtbR9wVEjF1Q7Wu84D9/N09PD5SHaQ1qPE1rjnG1OIUcQ2YUMqhxllI1M0EK2FAQKjPxvke3UbiA7A69Chgo94nUbvFgKmIiSFFlmYOtxYo9Pp2jXM5xJDHkjtrLK0DEv/75GXBRjO1G9M7B9Jzsc6/qqc8/PXdIvwZgRoD0UinySwD3HCDanbzMFUAEaiIaQFXjDCAQMuXiiTWbSlTjmcBkKlSKUIDaVd2ea5t/IVcTwVGPUQ/iI0nKW+7oPeB7axmr5gj4w59+0DtrfseiJmOcjHkyLhOpschVFkk7GdZApmpjkqt5Yq7d5lZvnysYtEFRUpPibaKhtTJqRWEy4GaiqEDpVCeAiTvZ21e7fclijd8vgHTg0ZK+/mM0RhSfSVZ4CUDC6ZJUjNO0Tue06jRf8tlWOcVkp5DsrMKowrkkQ9GSnApIHfRTZ9PIzd+xs4+orqugiFIgFASqwEQiVSSrnHLU+XKKcZ3CwzIHfXyYcDnFNQVtw3/wjNR0L3J8rtx45DYsLlrVQX5EB6AzYkH3pLBPLdM1vL4T/l5Jq70AHsR9M028InczAjpQRC1ICLnMalHjtM5hkgVzDjwL+QDgHIEHtfxgIqH0n0moI277kmpfkTQN/oY8kLZ6o0XgthAC7/GA+/HPP1qVtEYWOA1EZCYvJyNPRp2M60PGGsllMoZYGgbXaExaZKtVi937IuC5JsmtytOxMY2aNIeWYVGtczO7hdqq4wyloz3Jdcy0dgw2PxOcHADyStnKg0dzY22fw0CLJV7v04Rf8gblqJqzhmUOcZnDmYJJjR8AngDMFEwhc2a2SQ1TnRi3TbArkpYotvGXvB7iZYxD60MCazcyFWIioIhQEHNQqX5WkoPGFPVcPa90nZQpajSViP3UtXsH8Es9DqODXHDf1HDk8eWbL3sTyXv5FOJ+n8Y9bya8kCv7FJuVT2EifAU43cu17A7l+h5rjhpismmdVIWcU5STUGclv8vESYizkB8A+yCQBwAhZEy1+4MARWryVm6LFTzA3Xu9A/Yeb6NKvHd5sFU2kn/40w+h375trf3NShJIsyE9ZOpEpFPmEoApGnN1xU2VYSS5uvBWO5JrAl2qhCXXeep+INVWDCJV4tJrXlMHMm6+kyM8AOQTrnujTduQIT9QSDoAAV7n2XQv+iz72ChqvHnzQjbNQSWoxcspnigyi3EmcBbiQ/kdbQZ0BmwiRRXXUkulFFOK4gIdUMBkP1Gvdhu3w4QigSKTqcwW5DGrTBZ0zkFPKRa33XWOXOcgyxyZo2aqrPhlNfqfUrDwHKDcux8vAEB/mN2raOMrci2vLcG9152NV4LHpwYmdyUvYZ0uaFSqBFJCDjqJIarxIQU9AzgLeRbqWYiHTJyFdiIZWNxlWwmpB+vQgUFjjH3xQehei+giYm/wObLheTfXH/+ggn//s/0ffz0JALkUpwUIoTMZPiTGpLBzpjVLkkCESOZouAg4K5EoSC5Rvkg5h6w2DCYp1W1l6Ft1DaigASVSk6P1OsCqWfIE2VdsGu7PCzoA5FccZG286QllqNDZsRB9JrocgYk9p5NLBYxaBsnrGAVArNJPQkO2EDInNZ4AnHLQOQd+WCdMwvb72QRoVOOJYIRJKHInAyARrPyC+43nxs0WyUpkpspqKrF4V+lcpas1RX1IU7AcNediUbIACBQkEGvHQH7J/IvPCS7oDvvnZLR7IDTqoXnu//EZBoVnvv4Ul1/5ha/pDYiIUaTky7RazpSBUcSZCiXkAxXnDAma5YEi35nKpGVa4UyRqebaIiAThRjm2W719t4NQDrZqjFo74UFvK0X1n3gcO/3//BPqwCQv9TBtf95UslSXHI1Q2ZjCNVeJJJPUlo60DrLxZAFXOvBDynMxORaktuYjX+tG/NoEWjLkezu61joqHRdDgD55fKVT8pGXAcMfYfr2FO9I5/YHT36rhmZGFFzE6gdvlunb71fAVCNAYRakJCDnoScQpZzDvog5DlFfQDwAGIG7VRAQ0OARZRqXy02OBKEUAp1x6BEci3bCJV5iImI1dyHCWaqpDo0yrKWoVEpqq2T0oJYVo1UCa9gIJ8rwrknPY3mTuAZQMEn5Dv6iqLRXHQfJWe8vmKIzxyMrykjf+n5b34HzaYo6y2IlWZCFDaiFMxCTFScTGRW8gTgTMEE4AEiM4WhSPOFndfKv23iqoyB2Jfqpjt5qegePw/A+V0k0Tvw6PNw4a9SkYr/KmW5CGJWiankICOBEApzm8oMEO6kp1qeG+of7l0SUJnelvQW93oItoIY1vJdyvV3W+9Inm9a0fZ7YiD+AOjLSGdcextG9e2jqhvclbVIgCxRQvX6Lz5D1PZ9YychmyoR1ExDtlPIPNfcx6lsZpzYPlQmlrGYsQBHK9rYJdXcQhFlX4Eh22swUbBARClCUxGICEVKTk+gaijlm3ITSf6ai78AdEYNe/eA5jmLFOB+cv21TOe5znK8IIHpK4DjpRzMy/+PpUG5dilTybmVgQYzresxqEGVVDWG2rEe6qundextnxfsK+BkANj94LNRgUNwQB2eYX3vCTx6u/rt9hMRkTer+7AI5iwlzyrFrmSuf9TEOi54e624leaqYxi7978DEXOsw7/eAfsBUcDbz1r5XQEIMbb2MDw/W2MU4d0HlmIbYVKroypwiJbiWQlmKuW20iRU7ov14wxyFvKk5EmAGURhHSKBYKRIpFAhUEqZL1DyaKVUXK54IpQaJTcr7zbLRuqml8aCSyValbna/YGKxPsJ6ZfA4bUjYJ8rvb1nknjvvb33Oz5noS53gozn7v8Uf6vnQOm1ktdrjRgFpIZ6mAmBmG1qwUtINokRMeXSA5JsqjYmWY2mVgBGs4mQFJbRIQJMNfBpP1C7fe7fq34+SMC4vyMMlIF3ccjdAY/gpDdfkDNh3w4wzcRU920AEPKVybXpmF5O18Eb6b3Hdg7Wcrvum2y4dK9hL2sdZbyfev27f/3vWGWs/rBvnlAXt5Bn7Oc5C+77H42kDVQXU9YEN9UgIZfNq0aGZCFkUwBSN7ls7qiZ52B2EuMJxLl+PFBwpmCG4AGCiYIAkYnCKII6OoDNGVUoO3lBUWivOHAoVjslQgq1pHej3kLEmmiXmnRvlVz6Aji8VrN+7QHBO1E9npE5fAT2XFJaPuF3+jVGiPIK1vGaRPy9/79/TGETWszai+SkmabGXNeexGQFTIrvVdBsoeTgTNQsqzErKWJ1PrphAncHnj/477np+rxGOzR7e5smdRluE+5vlv94BXhM7vu5AwVFya3GKo8/AIjBKRy8gk3g9edE+JLcjj3LrZeYVwOSex/yM4GTfQGp+ZtjIG0GwdLJVebuixhH3fdM93afW45DrYBDjfxEjRpTDk0+CJmh9AkjVnvtBzVOmvmgxu8aAxHiVPo9OFFkBnhmkbAigSjCWpZcZs+UPKfTlEsSPaDkQCIhM0XW6qIbTDCXmeeymso5B8kUMRZy0kqel1oZkp+RoV5qkOMrb7vHUl5T/hpxv4nvObsSDnItwP0xwXzFYf8pjOM54JFXAIo4NqtEkUiDMSiJkMyEDDGZhkzGZBqSxZgyQzY2FhIyH4pTL0RJKBmL5VLR81twxU6ScgOltL4wa00eN0CYUPImUy0DDo6pROwtQd7UULELVvqG41at2cYjhw5QGoA0WfzsHl+q3a6PV7kGrfKC/OkT470z98g7rW/y/U2wjncJIJWF+EMidYuUFVAubjFMeLmUdA8qhX0UJ81c5ieomWgu0V5MNhUQsbnaZUchJxaNdAJwrqBxBnACcQJ5guAk5Kkc/pwpEqmYWCxNIoGAwkJUIAqhbhGjILN6G5SBaFWmKl3nwURmC5JNJUHwUA28cw5qOYrlOhjKVCJlc/p8LQB8CtMY2dDLK36WPQM49grAeKlHgy9IX58610M+4XGf9Py14qrKmP8/e++2I1uSJYeZLfe9IzLPqarururLtMgZkUORakCACEHQJwjgO/9AH8Bv4QfMH/BdAH9BL5JAcCiBEAEKGvZwuuty6pzMjNjuy/Sw3Hfs2LnjksUukgPOARKZJzIyMy6+ffkys2UGmhQy76rUikc+cR8a2lBqjsApDXTlgF9hDPpkbMaJJ68zIkOvJLdJrze2PnuUFhBWrD1gbJLyhEbOh8ILlHGsxqlkS9OY/JufPdbf/NlXrzrfP/9f/vxHOUEvuo9lIVvOjg2L4rEsEEt4qu8h/Xv9frsF17rsyDJedyLc6O6WUbrroLl1UNtfq27jr0sHcklyWxZvfF51IFt2GpseT42EnO2zU/VsYVCnsM925snH5BpT9THyGDCAs4R4T+mhDXQNlOZBR5ED5f0k02/LYrTEDMVMPFaxcR7tRNg8n9sF6orc60FAlYWBYsvFdjfuamJRWJygXeTLC8iv8A94w+YL3HadvWu+5o77X3Iq9jd2Rrdy6H+Mf7es5tsziXdMwWoxYKzI4X4Fv8S6yqZ5/mlk+Fvt2XzYNq6HYYY4idQOKBmXRQvWINK62BgTyNzg1EHkgLBZ2cl4KMn6YWY87HI97jI+fLHfVDm2AyHuWF//IYVnbQTaIavdoiAsRwDGxX3z4ntCKD13q2Kyw2sXjHUHugyPuyQcqSsupFw45PwNif4H4kLqahPpksNphXfyyoetPloRUU41wnisahhKzan4MB6dVr0OpSoVWaqeKIyA9iB3QkwCAxrb3MfAyG4YrWpsrrzG00IO6Ks9VjXfnPWiUdddgQbC+8lP5NCkuzm0/nQ3upNys+pxBoWIwcmjiKmZL74VwrrFWfyh+JJbf/eWlxWudDd+pYDcA939kKLxttcmTvFoXQX6gQZCJrRXiCVGEYOMOydHN46JeOjQStvUd5Da/5lFjRTH8DBgCrNYGIhEvSJlHVEcfHHoSiK7QCMB7dBDjCJ3bty5sXqyhynbVAYrJafdcUx+2GUcdnl9Cvc3dLz+1sLzv/3+iX/07z4QAN5/f0iPT1OiKw3FuSiqvYg84jSMvCy4w4ofWXYqj6uuZVz83HLPuQSnrg8TafHaHxf7Vy8oZaOj+msBZ/1n14G004d+82e/6ZV6WnEfl7Istki1M3yUHgFi5kipeqaQkmtIxcdhcs/TbJu9S9V74ltGu5DUTjOU9iJzmx4eG9SQzSOCtMEHGVIUDraNgjB0Mp0dUgv5n2ISPST880R6i1cmsqwR6iETrm3zgIyUcQqbFCaA5c5T+1s2060sjWs/c8tj694Cpjs5lksdj9+A8K7Zmby1iPDq7z3NF7GLKU4QkrKTOc3qPQYEExLx0cmHBDyI3AF4F0UEO5EDoRFRRLpbdCZpAWsptTW0xRvkKCQMx9qAWcc2mJhFPLhxknF042NNNlXjbhrTfhqTH4eEwz7jOOZckmWcu/v6HbDpPaaTm+/V88PAb3/ygIfnyayKNVkappqPVWNI7H2wqrFxGXtIjwAeqBmqCm+6E9RlG3DWuIDC1r58S9hseSDsRWFaXStLOCstCsYS9rrlpfY3BeSNhcTbaYSrF3qLPLsU0XpWTOgwUGbuKRdPdNn+peyGqe7z5NN4LKVlLiRz33dXTQDmxmHR1g4Im5KhwVgDhUyXQUgmJbqi84iNw3qxQLcsadOrTTzeSHR4I9PnotcKAwVmkbWpsXKT/s5WCovuKgms+OFBR28xpdQdm+c9J3e9oYjdsqe5VTD0xoL51udztahGF8rIfwooy8DmVmAwN+ZU5418UD89E4+tIwiBBrkTtBORJAyM7iZBbbCQsCYVT6e/3wOK2Ew7Q2ElooBMArKMScTOjU/VbJBxX7IdauK7khNqoh/G7NNgVrKlabBDW7tHbGeN3PIWu5RIebHw1Gz4+NnOpsH4ss/27uPRHp6nYTzWlAuzG/dmGpL7HsIjwR1de7B1HTGQmZt4oHObvTjsEFDhsutYfm2LgrJWur1SZmHbPXxpL1Px13QK/T/rArLqSOqikHD1Yl8iz1/Zi1sMbjFVpTx5pmS5OHaH6nmqnoszVc/m2pnrSKkApBvMwhiRImOQCxjiRCMzDxsJuhLbJt4lfbNUV4vH27xzoHlo8HThaIa0Fk6t4GJy6QyS6zJeNPlv40P4xk3S7yw2f0jI55Z65y1d0zUu5C2czT3dyb0w1un+WqJYp3XB6BhIbwo9wcw1UsGBtAztHFwYE6UZTuG5kCSF+CLmjvqBJexNzsYW+jqaHZUXkFUWmYLrQKlmD544VbNDNT6WnLxm8+NgXrOhDOmpDCk1U89E1yijX+n6/ApcqRuF5ez1dCOnwQAM5magYDIOx7EO+5cy5uJDKj6myqHNbSXGdZup4I+oZRHQDGe1LmWvU+HYreCrtNGJLH350gJuJ19bl2xFBuuvW+H4a1NA1tDW8raV/fvWhX32/VTcAGD3UtLuUIZUnfuXUvLkj+OxMFWRUkpVO0pPceLDLvBlTM15VwuzRc4WFFBsCpqnhe3UeajT5VpsKSQXReL0FM4iYNU3HM1Dh+dafin8ekNdVi+cenSja0h3nraFP5xV/iWvK1whpN9qUngvfHWP6IA/4PnNp1Ge1ZDIIcKpmCw6ZVmz0TULN4O+ji7lrrDZl7T70MTw1urfw7ZBZcwVkRbR3swNGksePmyDG/eeWGq2WhP3JVut2XzK5jWR1ZhqNmvczaWo5muclOO2su5V4RGBakYMAQkePGcAeciWRQ67Q0kpcciFsJA+01w0yUP4ztqMTcNESBSgRIHinCy6VHMtlVu9+Kzhc8drq5duJ6ON9ey4bOD5NyT6f6qicq24HB4GfP7di332/cGHqbpVpWGq2L9Mh2HyCkHRpSg1WWxyIhMwWPO8iS6mWTeLzTsrQzqlkc1OOPLGhwA6tz/gogSgCbDaDPHZxddTzlbLi1E2Tq6Pp/nj/2DyV3cu5rfyBcL9BoQ/hPDmG7ob39jI7n0OuLOwXSq0DAkuKpqMFy3+mALM4eYyupxCpSST3FygS4w1JbTsiflwsXoUIrQy7FySuz5HBpyGV9mEG7H2iaEZeY5u3HmyWo1eU/NdS2Y1WRLRlYgTtl0IrsFS12TbF81RRaJmQ/dAhZDcaDXZUI1DyTbm4uMw1SEXz+Ziqu5t0r+91vNrGbu8JDTnbIqp2eL3x7jHIrI6urZX8dBacBtdWeetiCSedx9LH7ytON6/IdH/cy0u/+Qfm//2V5/NVgK7l4KhVFhVjdOgAhYSTKCZKUOocrjIgoifPDJcbwsCowaBHdcFBhgYqWQIvVQUisZbnC8QNWek+T4MfDQ2ixqbjGrLJSjtQujT+hVEhV5liL/ln27ANHrDBr92eL3VQdxTFHjnY3srhwG8jhe+xLW8Nayqw1fhjySdbRI8TSUnQjW8rgQITsFatECJlEtNhDIdg0kVCifZlj+BV+vpcsd5yUrGMAs5AJCxz8YRqZ9+ks9ijdn9Obd1az/g8LG1Xi+to7OfdyPMBTdLhz3hx5pEWE3MMo6l+FATcxvKZKrerWCM0rENDzuFaq7k0Z2IoNPlBMmTzNp7I7mEjxvcZYuH2mXTJfobDQBeGK57y2HOadV9reOu7167q5kY/NN/5vqbAvIj//vVb7/fIvq8JprHKcxLNjMTXZS5pmoshCYAhdIR4ET3CTHNWxi5yROEoU2tj+0C7/5EQaLHSmpqDQFirywIQ0RViVEsRBGqAEvkXrPlYAfxRqmaVC3+dmHkY1eB9xgq3ss/vBXSumSmuAVX3ZoU34pafQth/xb11/IxOC7Lgn9IwNR5MW0QpwDQkejRVbQCU5K7EZgsTBOPFLK5FNGoOiIGC70dHJYDqdYOEW95j7eUQtL8/x7rDTvBp2q8G60JksMM1Jve8DUM+db37OrrLaPosaHXBJqDJZuBiMFbYx4mTzVbTtWZipiqx9R+WMYM5vJUXZTcqmBqXmNVA03VpHiKJ2SBTfjSEAGtZkKIVRG1Bo2FuDr4rqrIBll6a/Xnevck+j/5x3aJ51QrKPqPVUz+iysg//Sf+fJFPss1SFUTDHQDkvtHVFSKU002JfdnkU8Qnii9B/UI4B2E95QmU2RQU9qHrh9HSrs4zcCpNkGmhlrNwT8SCIfogCrE2grSROlI58FcR1EvMh2s6pDMX2qyZ3MdILwgFDBFYG0X+dLmHBcuaL6xqOAHbNz3hC/dU0iuPTa94bG/JeL2mn2J/4DfpwXd5e0g4W1XksUhQ+xQiisOJNHVFgBTg0WiG+1ecTpTGrYtnALUO9pTVoVmDs07lzAfaeZ8VkhsB5CAtbxFDIQLtJE9t6bBM1JstGysggGvOhLegGV0R9d0Bk2KMLdokQAQ2ZpDNVMoyZhLpuXiKeXmNuEKntPl5krJVa16br5jMJcsCVbdzEUzgU50g8ruW9bpjXbow8KcVwvevL0vZHQgcp5Pqa/hPd7oMuzCNX1RfPBP/rH96F3Jf5EdyJXKz+Tqgz5Od/fEQtcxCEV7bl3GM4D3BJ7pOgB4JvQe4AOlFwgPhMaAGbRrnQjaGLLa6XFeEAKcHaZyHEG8EDoC9gL4M6o9A/4i4jmRB1W9pOpPbnzJxV9ETE6UmmzyEwOzZWG+Ng08G7Dc6Bb4AwrMPSl9ulFc3qLQurfQ3HP7re7oUoe1ZeuyFbs8v+6x+aiZZMqcNKPMjda2I3NSBjEMd6ioLgQod6IYO3xEAHKIxrlwcHlaJjBDpGhqrCgiAa7SyXqCrJA8Ec7ZIkcArBrDODh82IaW53rqfrjZzd3TBevO9/T0eVagyEUmj1fZaiZRLS4AJ9yM5s5UTa0QKFWHhXmqhlLlxmqubmNUjazJ3eVRMczjBWt8FNUq1Sl4jqs8I7bZLkXxaEFAeG3bc8nBYHZMbsVj7axhuByLsMy791aAfrQi8l9kAVl1Iesg+5zitR7dAHNUSlNherZSnykcILwj9CzwfYMUWheg9wR2lA4QHikcgU6GwgHtGh5wlq/AAAoKxUnU0Ygi4AD5C8Hn6Hr4TOGFwjNdnwB8EvCpJj7JWGvGwaomJq1jMu1CsdgqJOup/a0OZv1z1+Aq3OARcAXaWmLjvHLBvJVLucat8ErhuFZgdMfvWE4vWzupmgxERRZDtGHOwZNldyUTB08hIHILvbafhoYsTHgj3MjUziei5sMK4CFH5ZyMp1N8MhSn6ChORvN4DObJzI25ZkvVuO/BZW6UJ8qNqL3AxGxS/xvXOs1L8OTaSYB38mxoRYTtOjVPYSWn0Nm7m+gJJRXKTdlcxVxJkeFgChZeTip5wHKpuiXKUGEKKaUQiXAyAe4Rc9uElO06PpfYdUVL68sU4WBkJ+Ybqc4LUG03Q+2dSp/34pUCslWYztbsj1VEcpv41g0y+q5/q2TBe4nQt55kz77+oYZtrYhgsdkuYQlPripikjiCKMNUS5sWFx0VRIG8ADwAOiKwzSOA9w3nbJCVcisSs/0KXxOZFUJtZHmhMEk4kHg26ZOZnqrbk7k+meupZD0R+ijgCeQTgIOAqSZOxa3S5TIuC0NanWKWBSCtCsu6UKRVUUkb911vkrywed5aD+uT/Fb29jX579aGpQ0oxTcI5S2jyLd0MXaDU3n1enQbfhkJqcthETJVyixYr7CuYefA5GCsl+hCQvoLVvW5Iy5OyURFSMzNz2C0MIJvIWXeHofciPgwupGtmAxurDVbdePQ1paacqtLzf1KMd16Pf0aSX4H3Om9mRIEN7o5zA1VAH1MStWlKqtjcko1VWVzuck8Tw5zqXlCGIobjYViEyewBI+h0Y1ReNREv5A3M0wLtRvbxq3+uoDnogYqYMd+/VSc2+gvnYS740afKRlwnlGfLqzx7tbR3Tsw7y0nKOwPXkTyvUXh1ka9Kh6XNo3/UFnaPb45951eAP1zAP/z//p/6QJZ67mqoNb+hiYALwjDtQlAcYYKpqV8UOd/I53ItK4j17RYFGcnroZpR/EIR91CqUicKBzofpDjOVU9peLfpWLPVvUhuZ7zVI8vD8OLyGM1KzWxhoKkY9abaW1LA7q19cuAy0l1WwOba1+y5e9aLvp152I3MHJi21ubdycRAAAgAElEQVTo0rq4tmlv3dc2bicux+1uDbJeegxnxUXdgwBAO42icRJ0wkgaqeRGowgmg3uMD7pTNbECrJRVwL0pe6pH9Kp7dLlAvO+1082YJ99nvOU0i2R0BW/iHmadzWeNqonuifRwek6ejAEVMXl4suVWABOICffLum9Z0fgVQn192yIOWq3IxhWXqiyMR0U6kkmUqViVJfcs2JSLj5EjFTByqOBorUtpLsScDApJLjGhOylHB1lXU8KlwYZtM1dhbOClyf0rQnSztmJaHtLG1cFt+fXysLdWspVFcSLO7VJ8SbL/IYvI3RDWb/7sN9wqIhuFYz30ZHeQaPfyFfdCIlu3bybl/fN/9A+we54IAPuXgseno+XiHI8VVsX9y9Rjbn13KJ4nf0lh/54okFCCArbi0i8nrCFGhFLGF+qYZRG0jY21Dw6GZktwuIoRRwdqkrtgnqtPKqxiPQh4Gab6VLKVXH2q1VQTBYSnryfjhS5jnUW/taBx4T1dRw5jAx7jxu+2C4eMrZ/b0sbjBkfDjeKzfo11gfsgbideAtuxubpy31e/X60DoWQh/pa7kTVZpZTMpZrMKbF9holygwM2UR5BZ8Ak7xQ4DMYCKZ3phbr1O07zQiKqyCJi6u7PTnjrQlwxYEg3qhrlIZGFghehLCKWWxeTLryWvFAIdOPavvTZN7D+mdYRUeHBc9REZyfZUwuEC2LcqtMG+mBSSdX3iBZOIsmOSHRfCHUJdsx2UOrFwBoPoqaw6h1AITAFohCzPi0/vS46iYrtDJP94ns9g8VxGmbU4jpc7mu96+hms319T4uuxvHDpPQ3CwjXcNCiKNzTcWy1YcuPtEHUxrp2XVVkMKwRgNt23bda3qsF6PAwAIhBw0/vR+xeSs8GQXIxT9VSFd5/f8B4rLY7FGtmi9YIOSfgkLydPk7pZEISlDgbKcZrHotuod7gPKxsJzNFJoTFxKgwTzyGN1ZE5wYJG+7C5toDeI6BKa+dn49C8orctQ3oyRZ8kG10D7zCpaQNjHZNzKcbf9c2uphrQWH3wGXXisW1QqQLXcqtA9Dr7wWN2mYs2NMwDd0DrQU/yUi4DAQ9WVVVckN1s0JzulmpCqFqY8GPfaOTgSY4HW7h8VQpJFCz6+vJNSdO2yB8Lh5kcXKScfIw5qxuPHqyyY21FRh0z4NGAvTndDoIkZfED9de42sHwXoBElve3uGgAqDIrLYuy9vg5fyzKWTRycK3rkKobjxC2AsoJtX+M03WS3MnYz7n0LJc1Ic+++9mHweG+gbeZ7REqW4Q5kNwphja4x5Xr0PB62z6/nPpFfzdnnv728/te92bbFq9Bz8uhLVVPNadx4Wuo1sjD6vPeQmTKC4g4My9Y/OkQS2HsHiTpLtnAOyWaZvKkFCGNN9m1TlMlVbF4y6Nu5eS9i8ljYeSxmPtxcWau28OK5PICGmyy356yYip3ebUi3wSb4SWJbT3TM0sMTc799xM9KobH73h1CVZLUPykk3HXX5+2WfWRCvJDv204xZTYfSWgXiZl1pDTltFZgve2eqmtgoDN/gG24CyllCiX3ms2iAUbaNbsQuw6qXuA7hP4vxWX68ZxiJAJ2BOQ2D3oDdCPJkoJymr2YTiLK37qGIFzAIC8XA6oR/b+iJqCwOIDS4pnA8MgvPk/NzH3TxyZlhElmo8yiKwrCVeNjgL7nEfd7OpHUhqU0FJNiu7/A6F1aXM+HsKslake4dolu9730QPbdOMnmN2aHADDG4wwRNjFmQcJu1S9Zqrl1wcuThz8dSm1wN9qMoRPCcjYPSIuY7OQgnzsOGpM+JpAFhLKxqeupARp8jucQV7L1VU65z2fghdwqmHVjBeNvbEsuhCAIB/SC4kbxWLdRG5AF8tL+DuE7MMY+lBLeF8GWQycXuoaNNLRzFA1zi7u7DRa7/vXjwWnkyH1CcKaeOuZLfDQ0k21lz2w9GGXHzMxZNVDSbfNXPFoUl4HyCMasUl8hrOTvHd3yccWZvVorc52PgcCp1qJk9ETYaSzY5jymWwfUn2UuPjIOOhWXTPsk1KAYQZ77ED4R1f447bt94XW23662Ke38CjrVUn9UbR2Oq+bKO7+qFQ6z0b4dljaU4cJhPdCRnAFJ6YkAMpyG2TtQ0lyk2BlQS3aGi9eTm5zCEXHEI1IUuxYWkxZd7+H10FMYmsrfMorVjUmjiJQGyjQE10N6gmqy1CwPu8SJsZeWUAeoGXeuvrtiaMl/kZeYOIn9omOncC8wFUsFQFujCUmoapDvuXshsPZdoda0nFx+FYlYqXXN2t+rs2rZ4pPVs4A4zhQKEGX50QnHbaPYPZWuHoI+z9se/aY8yLwsHF7b54fuuI3rwoHkv7lKF1HmlRTCvOw65uCU/+cBxILyJLSOtKEUmL4rHHKcDlEcBOEXyTVqQQZoTxWgQqX3MY6m0jZ8vye+Gse+JRrxUflmSWsuXnh2GchjT6M9+VbPvxUD+ryd+n6o+p8sGq3pn0QNcQ1u4cTIquQ0j91LIswiJqkyWG2UIQmwjZpNHJXDNTTbaryYaSbVeTjVNOT2WwwzTYs0dOyIFCdYvhxabr1+oCv8eC/Fpx5R08wbVis+ZP1tzKWkq8fm/swt9dyxdv2bD4BiHJK+qqa13IZZ6PHSoPISclusHNyTbHACJ4C2/gJj1Cw0QxVXmIqALaSLFdl7i3kVVUNu9T1hSToFALhplfd4A2D/hKvYg4OXli8RBflJqsyIiabZq9r6yJughzI50h+W2HHuC2+/M9brO88n4t31tfFI9hUTi02DinBSdQASgVN/PWYUyex2Otw1Tr7ljreCjIxTFM9WBVKbm/tIC4g3mLbAAKpCNnFwAtbVhsUTTqqkPqjtxj6xTY9snlAXypnFoWzU4B7BYQlq3UhMtiA5wivwtO4VU/mrdWvvSmL4vF8usVfJUWUNUewPumUnoHYK8IcllW0PMFwovKlVvRqJJm2uBaCNE1su6aE+grP5ouv3ejlWwjpd1hl3vBfFTkNexFPCZqJ9dg1IDqOzOZHBmgQUoMgr3lo3fHXTZitQn4Zw8iymOwyzwmbEc3DjVFUpyMD40beXbjEYhUQnOhJhbq9NybqcIPUcngBhl6bZL40qK1K6ILu0Fob71fvFDgbsFRulEE/cLzsA1sfkux9bp7mtVYManshJDgVpHdYpYgCGukXOQtvtgBA7uLLMxFuGrMKpgrI9xAvVnC12Zhbs38wFqjYG2I0N1s8kX30T5qNStNtltqstJUWfJk4ZXV6ePT5PmS/xDucxbQhY7y0ppbilDqomD4ovv0xf+XHx7x1TKr8mGqGo+VDYquw1SVi5c8eTHXMbnv6CjNcLEXhe5l5vH75r9lq86jZ6N0p+UlDzy0w7XjdQRuWXAfy0Kyw7mct39Pi2LZYa90BXr+Uf7lSzzHDeJ8yXssA+kfALyT9L593TuTvKqsOqVfXN2ABF5uuXo70viRa6qtS+31vT5HIe2OQatR5FiTDanqoSaLjHRXj8F8EDXm4g8QdjQmVYwRXiNjC5PqtgatktrCIN5a3nXLrqPPlTL+frfoTmj22wB2LcOkUHoxV2m6eHdDBzu9DSwK97vI3vceXRYurF/rS+qqdKdqT3cIJLDRTVwrLLem4i+9LhWXJcavCctlF2IEXX3HjQ1dMDfW5EpOGMxIea7JGkmqDHilrFDeFDphe9Pz0UVkcwwiJvM5/yI1/sMW+mN1zkNEcYsZoprs2HiQQ0l2bDYmNTqhxolwlvp26MoXawpv2LB4pVNZvh91tUEvg5jqqtNYcy4zL2ZdtNy5CIlutAZvqUUw9LktthnCrqBK4UV3dnCe32OeHyIcr2c6+h7ZYbUR54ODnVT3lcqKiwP4uvNYDkGnC53ej+7mmwHoBxYPW0jPOmT10CCr/YIPyWdqL51r9LVM2zl75lwWmtn2fOuCVpzqf2gU5K0NcInHppjU5c7EoSbu3fhYzcZk/hC219yZ68HJTFOWmEVZN1RTNAHxGurMAiEuxshmiO4s6sbYSHYtFjDZ2EGrSiXhuUkpS6oa3DRRcLWTUpuIdYDekkjuCUvSFTjhWmSs3+jocEFJdQm+4g8sYAlvS2W8ywX2jR0bLqiIKKPMw0mTEQaVOsuR2xyCjMUBmnNwU6aYa7IJwDFPvoPZBPggMEG+a8XiaI7sFjMNIT2FxQqKwbfY9IMcF6MTkfEo4gCiuvEFQFHY4xziPuzEdHwmyzxAeLr27vEwu/We+GotrTuOreLhi0PI0H6+z1xVAF6TWaqxnbgx1WQZqLkm27v5riYO5swUsoCdDBmR85PbIx6bVWRaQ/I6F3IM/bHytG/kRaGY2v645CvGxc+lDc7ONgQFdVE4D9iOFL60jn9cDuSGMms5gLZ8YcbFR37VTi00V4Jea+N13nEsCosI3lNI/hAv0qWWrwc2dQvnrBZ76cYhEaObJVAjhDEsKTTgPMnsPEmwk5oxTNalv+11kWJTCGM9iG6u0U0yl7tRlJBc7gnI1RFDX8kA0KpCl26oTlaDVANDB7X0RLp6gr/H0+oSx7ReyLdy1G9NpF865W+lum19vtdr69Yk+jWV0K0DSJsI0KufF8GarIRZCFGSTc123IzInlhAy2EkolyTkcIB1XcEs6ChgodUMbjF+jRHbhteH2Q9g97cWALGYmkw1lHGWrId1G6roeibi4dH8ZKn+FkG1FpvqKy2xAr3dpaz8/Rig1zepg2CfVxs8DOM1YYDWaNzyiVbKsl22XysyTKFoZoyk2dUZFA7I0cH9oQySKMwKPjLWYzRCoqtulLre8SCsymIPeMRwNPiUNohqHHRsZx55S32tqVkuavNjo1Af2m3HRYiAscfLgDuhxeQC8qrJbcRsZoniW5d4Hnehmp6FVh2Iq8Xj1b/53xTLySO1xsgGify1mAg3kn6zXBdyyLvhPc862GRRd2Gwzyfna5j8vjU9p4u6u6F1XHpdkpk5EEQRiCZpAr2NnugVM0x0FXM3Z0Gc9VUHSDolo6MsCKDK7mxUnJtK9je4vN07fVcF4wtx9FbedhpAT0Z3uZmcGlwkFcw9/VjcdyfvX7Jtl4XCP01lDWb+GFWzDF5LAy2eRCCmkw+iJpiSt2GZmheIBaKI4SjGaySZtXHZtA4hKScLSRJ87XeVXpuLJ54VHivFYWhYvBo1oYMQ4QxNYGG17hdXRAgbk78b+WA33qfLr0fvuI6fONrLEjm5f40cw01mUEwkzQNKVHKZbB8dNtFRroe6PaewIPgD4ANoEZzGBx7CIMoI5iBpqiM/cAWxSovuojIedE83tC9yQTgcxAHaOY9nMCwsDupG891Oe9xXH08tQLysigqWtz/jEf6g06iv9FLihcITzQ6orYHj7bRT+jRmn1SVtuKlYW66vyCFbq1dFjFgd6W37q6NtHR2Ynolnzt2imUrzsuOYQBwkBXTx+08LabJ1UTNZ83OacWXuluFn/Zwt8CpjA0SnQ4DKLoVrUTAXONItFzDcwiaU0U3MVUHMpWELkiMAcFuCe0USj1AbBbZPg9YVBbp8Z+0W8Z6F2Td9bV5ssLvAJxvyx0qxu5JCe3O4sHLmx22Oh6ruHQ5ta0vC7VRJmD7oAS3WqEzpbEKdFMYbtUU/VUk8UpkzwmepJrsCpTsoO5BhCkR/yqeTfza/BZt2wPTqMVC3rMgyA6khBmuIfzbkXjQxD2Pd6s333jerkmo77W0W51qssp6+Umeun9WQ6s+vkhRjlE0IKIQcZck+1qTqMXfyw5DRQeQYwZ2BG+Q8UexAMt8n3MuRMjV11kIpDaYChx7l/VDkMcGuu1fLwjwOcmoSjtQR+kM/PEuuA3psXnwwKyWnYfzzifBVkXoB8K7/9BO5BLw1g6KxxAgXBYdCS2yiygehLB4kR+Vki4DAhnz09oQTdNU6IFT8JNDBW4PkzIjcV/6eRqiMHAkaF/2UW+MkShhdtgOfWKZnHS+QpDD5TCMpWuOSSFb2cC6D0PG1KwFxZ2CKn6AKNULQoZ3N2YrYZAxumNeKc8qabqudK635Jbt17lGZnOG6f0t/JI2lDFYHFB35vpQdwXH7sFm+jKc+KNtf1DZM7XOJftOaXoQs4KqQcnEj5ZNgc6GRwx71GVqgm5eBaNycNAsCaVVOnm8lQ8J9fgrslcoKm0wTdrtjum5pMV5HgUhppCfRUEuk01WQlpL0uzKqlurDWZh2lUDBq2E5+v3re68VrbFcj5khpSqw11zYfgSsd49r7SNQDMDFfd1NwcxojsRa7JMuGDCgeRj27cU+w87mAeQqDOQzU0Iea5opCcXI7P10F7fBwXj2iK/S46vVNBFAA8t66kMopCLxLT4uvaOo4lVPW8gK+WP1NXhfg/nZnilVPX1CxJKojjPDCouTjk1oHMhaR9nVqC2npiuRl78BXJznjj1bcS9QTO01bYuxDhssX22kb60sl4bf0RE1neOq3mdUOFs0MrIi14JszX2uhvEzxqDqSZPXTUf/eZi6e1iAFBkjmyILrZ0YSEqgx6dTNL1S0yrMXkMlSZmzNPSNOYaipuGlKbioXoLWSNvLRJ3yN/vbUeuFKLcHWx5xvFHHcUkdO+C4tovJjSRv/8+sGJb3iO2vgFNDdLNbUpZN4qhuenGrpXq9XptRucubm306kapCQASDX67Rr2IeE3ywg6moaEVD17xN3SXKkm0lxm2ZK5lKrYOmEz98Qgg71dOylsTJjQ5o/ciJKTex9YzSYn4cZUBpuqGVpOiTfivUNwy1iCaxP9WwaAtuLK6kYXuyXJrbg8m8SNA8Hs/dWer+uU4hgqUWLn5FgTR3OOFAc6M4kk06BIGQ2xApQBDgRMp3mus+K1KCZNPdXd3dFf83D6bSpMhrNyn2x3AC8QDjwNRT4v4KoOYfVi8bIqGMuvt/ii/yQcyLXOo8yLQgvISrJZ7x7n3bkbEWTqBHGoQ07OteH/REnWiogRYcZwUu2yUdAX5Zm3Bpr8jUosD0NFN0Qe+TFks15SDG+Vdp+uG9fCfI3dko0x99HJt1dYfCPqPYIOZHG6k8HpzRG0ykBzpFSVAGXRqyLKk25CqjI3IU9u02CTVQ+AK7XAuYBH3prPYXcQ0MTrXGysurj75n5at9lgSi6KBAHImvrZYJaYkJVzUkpGi8mK8Og+HUbU5Zo8dbpzcL3Wue1zsWl+6wkC8pT3D98/fLV72v3cqu37GDnuGJILp1gvx/H4bbU6SVKxcvj+3fe/+/Tw6cOUjlXUbAxYU/Td5iGjMyfd4mxhkolRJHPxFPeLRI/kolWlmqLdpBCLIQ45veec36c+ZFqTJZFDO41byNQ5eTJvVu6umBupCsNFv8IZ3Uq+3OI2DOeS3eV9llblHcpZ821nBz28NuYMqDn8wmjeEwZV27WqhUw3DoBEEpAF5sDNYSblxmdS0X1YwM06745Pvna9eC3yPGggXhB4fFIUEoc4hVEjXyg9U/ok4MDoNsoCnip4PSg5LYj1srj9rOD+KHkgd3YfvPDh7u7RctHV0m7ks4NG97NCLyiLz1wWlFYYrPMd7NwzQRpt8b3evUSQZmyssVE0PLkVH93AYG9Zqpz9TDtwqnUgU5DW7Qm5kFx9EpXtojbMQ19zJjJa9nXPBTn7E11gG7EDBALWAqHkYZSXwhbPHPAkIkLcq6dajSnwNKQai9xcBFkVYTki4SHBkeplWxPeKMi3SNAt6GLZ3l89tVNEYmJCslY4kJmZkCIeD0aKNFjKypaRh6EMeZzGR5JJSRMrMxpsSGeyoz1YsZGFe4phLki5sg4y1VcgaFMKWrXBjvYZAFqxh/SSfp4O6Ss4Rr4B5WsiEPfBP0gCxQGAjuPxtx+++PCvfv/T3/+bD48fPhROdSn883Z2rQnGkFRFVLeBVt3KkECXpeZd4OE2m4JciaJizcCGp0n43rq7G93D7j+5McnotX9OlmKoNSwEq7HK5q4DAJfy3VvilC1Z99Ycx/LUnDdI4OXBdT0Psea6ZigtEkM4EUqUjKdhwA5x9GAo40kIdDJEXQZA9cNuHF/ZVPlpJsk5u1aawNR/qs1xCURVD43iYohQqBSfTDrQ8QTgk0mfHJhMM79xXBTdsuBFyuLDV69jLx4/ipQ3v6F4LHMf0kLpcKr0XNhVz5Uj0pklSa5uR0K5rPlb2eLUOS89Gvu/cJ+LdGGSRIvLibDPfmPvetrpY1FA1iZ7W3bidmXzbJeLyPAZKsld5qqUCl3tzdd80TZuow8LZs7TuifIjvNz7kkR84tnrYiIDClva7YUGZn0sPtGNpfl4qNoJVU3EEm04ia5Sal6qMJChRXFKaw0cGEeZIsAvsQhbNnl44KM99KmcgYrZeU0+jjssR8GH4ZBQ05MlpBoyWBuaXgZ3uWX/Jm5JXPLecqfpSm958T3cAxKOsxrKR7BwImfwTHSuYPm98KV9Ak2d9AbuBNGFr5rnBu10+/1qL/UqI+ws9Cehc78QlGuGO3ZvrTJ3rPwHQR7mB5+OkzDL/aH/S93X+3+xYfHD9+85JdDZelwJk9544BbQFUiIFhqbX0cJETCmuGfQLeWM9idYyHOnV1sZiaiypgUg4WpJise+edVxty4mfC9mrsOvvJ8eqNSb2nF3tP2ygq2Wm6SS6fZsioqfqVwnblHExEXbDHYO8vpCYTfVZ+t6qiHTj/HlUGoTvYk7XC5EmHMhRcWxpW09nV/3afmMkGdnsNkUrWqJ6OeCP/ojk+UnnA+/3JcEOl1Idf1ja5DAPQfNRN9w6a9Kwz6PMOwLCQxBLW4kFwntYdC8CPNMTbWigf7bQ3KavBfL/uUaugSSIKkk+z27qRxJknYApPa/Rb7vRNE6nfjyXZhy3b8mlyUVn1oFSpRin7W3c1Vu+1zd+hEd95Va1vVOqYg3U5/UzOJzhPVw9nepSUA9canQjHC7pF/JgjVHHtRL02NtfMoyG4eXVG48UpWHaIVV9OQtpUr3oQttwrLVnHZsoi5+c9gNBhMlvZ1P757fvfFF5+++NVYx/e7svsiHdPnFDON7oM/UQQP/IJHfga1tVfwSOcoqELIDAnCdEbgOzovd5ZbwbB+OXu8i0LABp1Ke/1O7/SX/s6/1l4fscezksoFbmXzVeXEQZ/0Uz7xc3uxL3DAex75mdHss+8++4dDHd79dP/Tv/r9T37/b75//P7rl/wyubk3ZoytiNDNAuoMQNBqptNlzb46IlfjsEA2nq3BqPGZJ6lHWLQj5q/DuHPe5JqJp0RYl3/7qWvtxpy6oaS6R6237jyWRol11alMq/vrguLtDJIOKW3Awk3ObAoXh1HAUJMllppDqebts1IXjAonFeUibXD7UMU5Z94AhPkk2l/mbFHU0x9Ll1NDKIRecvEDhGcvfMnFXygVK/6yKqLTlYIxH95+zMKxWUAuQFa9aCyHBWPuw5WbhBXqEA5JQT4rpAzd8LmfpTsMpQ5dteKR2u+BII/o2Dj1hA8uHTHmQBAysxYvS0myVlQW4i0YyUqSlswXb7N1qAuvLcW30vd4QpiA5AKrV1SvcDmqBEVCHKXcBsZ7c5rn3zdPsGo9db3gB5qEdy528g7H9zJD19gsVVt17hGcKs2iWm7yxsW4Scnb0Lq54MF/gFJqihy+4eR4DZZYbw4XiWWDMSnlHXbDvu7Hh+PD+y+++eKPHz88/v3hefg1FUTmvPEDMrMjmowUGS+Nu3C8w19q0CenFx30iIqd9voaOYzrmo5tpDPBkdWzOQyTP/o3yHgBIZ8dX048DJ2ZlWN9V7/2d/6dJ6+wyNJY2yXekBGDicVGO+af5G/kypo08InvNWnQR/10//3+7+w/7v90/7L/5fefff9vvv3827/4/uH7b4/pWJzNAnGWA9CjiLBSaL7w4XUgg0yRNSOwnYNN83nhdRHpOD2aYaIC65xpoP695XNKVw4K90zkLzvUdbHIFwrMEtv3FUdy9W9GEWxOxKR5siz6zo3ZEx9Qsfdko1ftRI6idm7MSdo5MRgxKOIYwhqGzMGBaMll9ku1RdbDW/Fgy1KRM4qFul1+v71lslAqblYoHT1x8sRqridPLa+FLJ5YUnWvyYpI5VKrSD0+TXNM7n+MwnEPB7LsPLqnVXfcjQFCzhtk3zB9oZJSKyIgCDeH0VyuuPwMUBU38Etv8FPtsl2CPkNiQCUp97CICpdyc9WZqZ65yNadsJZqBBPbqcmSSZKZWYeKluqs5XBiSq5UAeWpwo5OVIdVJwXl4oRUzEXIbZ4cjyxlaw+nkeaahwfjRCQuyfTmadV5FETWMqw7JlEa5os47CkGCoXh05Pb/3vyYSMHBYiTCah9dkagDN4K0DVzRa0UVMT9PlmG7UE7JaW0r/vhfX3/7rPnz372/tP7X++/3/+d9JT+FgvfzQqn6NECyjBU7fS1D/7Bd/4tdnimhVEHdzz66M8VtfrkyaplDqwBfKVEbzh0HFj6LBFaUXJR1eFOslbUeWNT7w4FtqIhYwyjzcLr8x7uVQey/Htq1omiqrLExMn3/lRVYZ/b1/61P/EDf/Xw/cPf3z3v/qvPP3z+269/8fX/+fUXX//FIR2mwuIdSY/2HE3xLbixQ5ukxCqWYAhhNPm8xhYPbwG7tIHA2bW5gZ1xH/H1+9jgLN5YM9eEGQmvHQOWh7q6EF0sh/S2fLGuHWY6vpja3EpqxcSadcm+Jhtq8kcIgxv3NXFn3ooImS0ie03LvS7iucjwo8P5dSITGI7HbB0J0cUHRUZVs+KJk0dBmJrfWQVQ3bwAOFLpaK5nShOAoxt9GlJp6srqiXrZD+Xf/tc/ravCjt/8o6sF/VXBfeMs4F0FZM179A5kmfPRi0szFDvJbhte1Dd/ao4igLVugmEgY0nxL3ZytUHBWFYnJ83TEJS3LqU2UqCLHOfTEElvnY46qd8eA1WDm29T66iqcf8TlNRLYSNbYO5KjAdloSaTeVf0QomQM30AACAASURBVMiaoSvFqQ9CIEjGmIWh9fsEjZa2Zh5a0egVokv/eg4pxDllzhlQTSWUYzKdHkVEpRWqxICzSpMMW1vwxpiG5Wo+41YHcon72LLgfq1iE2gwjD7mL16++MlPPvzkj99/ev+3x5fxl+mYvkLBu7lojPjedvbRshXs8MnNDyWVp+P++HUZyydlHZMl22u/M1hust0RhDQqJaQ0aBgGDqPBElNYm7eiMNvktDXhgryilqIyNYmtn/EZvH7GnQ84p/TT+W843NvnfkgJl0S0CA+iyDT5g3/UL/Vv07v0Pf4KU/o+/a2HDw+/+Tl/ngcb0sd3H393SIfjEYdSWb2wuLygovosJWG78LpMXB1QJhbqq5P2fXVwaJPwWE2Zz1+v8P5rA6a8sHY244W7snJj36kNmq6LzTFdKBpXN8AQm4QfmE429DuRGcDejSMNGcQjyH2bAxkpjJBGESMMxnpy3QDD164hBbN6sjNN6gPWZG1nIkUwF6c2rFnceKzJask2EZCTCjt9sN2XJRvdaMcx14AwaTUZv/nycVpx0LpxDW+hBD2u4wcVkt/82W94S8a7Jpu3bCe20uxO6qt4jEaSLs8krc2B5FYYLKqAbKaKmxKuXej9cphxz5VtCZtqaVbTtJ8JrNYlEN74k/43DESlCJfTaBXLwbreKVRP83XvvhOQnNgJ2ksaBGRvvA6C0wmVfFQkb8oXW0zTcRHLsWx/bVFE5nmSTq9H9BBjEEwMTavUzuAynGZMUuSPRJE2V3aLLAn22eP5b/ZkipshM+sN4NZ8xtkGYjLbT/vxXXn37uH48P7Lv/ryv3v4/uG/tWKft/eKMBQM+Ig9vuFP+RfpXfqULCVRqqwvTn+prC8glJQ4YtwNHB5GjTuDJYMlkxnBlJWHhDQmpTy/39EJeD/ULC8kQaqoU2GZXF4cvr7f1b2pFQ4/+xuN/XN4LSiFoLtCBRM6OW/EVpVXp0yeUjra5/Y1Mpw7vuhZPxmfxz/62W9/lt9/9v7/+/iTj//v0+7p+xc+H174Mh2pCZGhrAbQtnmRWHVtJJUt8lbE2VmZy+5jWRyWhWP9ffRVe/lke+32xYsmbsBZm7Mdba6sw+PXIhguzihphotJ9ZhfchQxNHftHaLj2DXJ7QAwCYo5q/BPjvjodthsZ9A2qjDDzCGPDqluRRQrttmT6EJCjjP1yOAeAOeGYw0H5FJCK2bHMes4JtRk5sbhsM+1ZtNqnspx2018DUU7Xk+p60Lm01WRVb7j9Lk12MPFk8AFJdMZpyApERzUPGRI5m5MJp8nO9MMJ8XXWs1uqEEPtS9E8ozSkqQasu150XVyv28MUa88LnIAQbUQMLPSRAB9Yj6z2Q+6YB5maNnJnYP7YrZL8AcHRieHgJ8759FIuBOMZT2z1tBw69fk/aITUdPetuFCwtuipbpCREpNysEmT+z7wFlXQJ1NWka4dd8kJOAc394iRS9tBksTu1cbQK55/OL5i5989d1Xf/L46fHXSWm3+7j7e3SOTZNWsMd3eI+/9M/9L6fH6TsmFocPO+z2bcMtFbU25QATU+5y3nbVmsFSQhp68WidydLVdIav1s+h8XVmsuRwF1cdyOVCuew0avtwQS7JHd4JP2/dzyznBQGHxwqEgDA6o9PdH/0Ddzym79PP/Lf+94YPw9/Nn/Kvx0/jL3e/3P2LD+/TX1XVWlhI1YjqtM5rYT46Keaj+xV0NQSmga3d5uS0z6+7FOOtSXtc4YJwQqFfTaHX1bzH1jpc2x1d60IuChr6taLTAS6I9QY9C0zBBSnFsKXSmisVaE3MaOTlw5YwE+oBnJBFhjJDW0CtxqMnTiXboSYzAPmwy1ayDTXx4bjLqSar05gKXk/g+5U9+1Ixd5xbpCwl1HcVkaXQKt9BnC7/IBfEly0grO6waws5bXjZC4Mk77MfvftYcCsj2QoLF4QzN1RRRIHmtrdH3W65+apr3TusNb/D1joV9bND+55Ar+4M07g+S0JFELXJkFTDA6cYB0vIdOyL2Z6u0aHsRLIoYy0sITzbpVlVNX/2Nqlvl3Hic5hAM5G+1TPYjHTpzG9MTfXv7eec5xkrt4YIeWtTwHlGef+tNpZx/PmHn//6F3/1i3+4f97/sVV7B8ORYkLGJ3/nf4UHfIv3+BaP+FhSeTnyeHS4u3zXxcsHHl6e8fw8cSoErVndmKSXxFQGDENSGjJyERVWG/DaIFOeJPu6VBRnCRxBa4Lqm6ew5q3fYEZK0KmAQF5Za0WtBaUUllpR67LorGAuuLy63EWF2dVjUt7lX+ATvmLhu/wh/+l+v//2+eH5G8vJ28yBq7/HbcajUeTN5YBLcPZ6V8BFsSXPuwBifci4hqlzo4tYD++e9he96iDS2e8k1oOeWlgh9UPi1WFOaxxIy/hIImnR2eRQZdFEdcn0PKbAUGKFOqfdrvP5kJOhKmaT157zUxavhJ98w1hFHgVOnqL7qMkmN9o0mNdkVrKN05jqccwq2RJeD1auuzB/YwHp8NdxC9a6VUSWsee3OpBl8ViGtCecPK5sCftIzQOKSHINkmrjN3aN4O3Y5w7CCCELOlnAqxWnRYbB4gSTVnxL98NiSO0oLHOmjDVO7vPFbqoz/KX2dk/wRbkKfIE84caSe3ZQlcH9GGGVNtCU3bCv5GjErpLZqFxBy62gBnk3hwe98p7y9vUq3k56tRC0CC5s7Gmz1O4LqM13LFPTGn0SkF2biW/4MtcX+z0ZIbfwVULgbtqNf/S7P/p7P//dz/+n3cvub88DWBkH/8L/n/K+/La8L19jRMnMJMgJUz3oUJyxofZ35BnPhyc+HY44Hg1motzlPnKsBrMDDiRoI8YxIw8Zeew8Qy8i3PRR55LsPuMvcKcXWIevKmotLJMjILBWGIrTfcI0VdReXLQBgXHBz3DCRIJIQzoMXw3/auc78BN/gYqdHe3RjjYgQ04VST2e9kxa2mCoPoFNapObOJMA6AI01QXAb4DGz17Ddu35jZW1tL2xs9O1kJqTxWxRtOgkOwO0QNi2HysdbWqcoSvoAG4rkG34N8XtzsWcCOciwSUEvOHbptfH3sY5ertWa1fRNWuVGOYkVM0kMtVk6bjLQ000cbZ4vwbdvcVZ2xezJAe8HvRVKxD3Dh1e5UC0aiuXaVsW1fikgZ+7jlZU5Epefd/t1xtM5W0xdPv3LGkEsGsLJS8KScI54WzzbMniXCUs5k5OTgKxdgO24txlWIQruZydW1GNgRFYnCRdHkOI6uLj4BZiU0BKUC6kmWmgMRXjSOPOyNGo7GAyU/IogGaxaNv4xuwPhhYQxcU7qw2CYSuGN7id0x387L3qpOMCL1CniZogrtnHV7wt4e8Sqb7sPJBqsq++++rXX/3uq/9x97z747YiJiR8qj+t//rl5y//+rg7fjIYBwxDUaHT/QUvhwnT1KEfCBNBHXg4vvDleMRxMpiZLBksZ+RUUd3hDgITpkNCShHjGt5YGTkvOxGctXJ9dLNd0qe7WC8ufIXtCRvw1QxhVdQOgYW2G+4V9QwS24DH+kYIh/uEKYqJ4cDP+Lwf9x8ev3n8k/RN+rt2tPe7D7tf7rl/enl4ORYrruaAsuDOVgWgz6BDbzgInE5p28OmNw8ZZ8vvtAi5ehmW0Kdd+X1tzEVrmXgUEy09r1p8++lxU9Fa9tTPGAT0Od8nvg7YOPGEnvSi3F7BmRnasnWyVj6aB8cm9Ku45jhRi+fAFg0RuS/ZjbvWqRRKPT6i51Xcyve453vdbHHA65AqAai3OpCLENayNbmi6+8nhcnMkle3zjUoLh8DwTrVsb3h3hID+4aVeoFpnccIYBA0tMKSFSlgC9ncbHcyQyQz/9HiQOe9l6eFNg+CxXnMm5ayz6f4GexVg/yMblU9d4QkayPyICC5mBNkHo8zOTFWw5jIXIGBBpux1dOLZ12nZVg80tUhsC++BkvMUaHR/vIc9wxLhHMyLPT9MzG2KBLdQkE6WS7UjXb4ngJy0WxwKMP45Xdf/urLb7/806EOX/jOf09woJiOPz3+q6dfPP3f0276mJAShFxQjs6AbUQVkkWSJp9kbVSooJRI5rV5oXdvrDgS0hyuguJtlkMWc+sGgRk5LQsBu5XzgpfoUtv2O70Nxy67l6XS8AyGCuZ0flfZumQ0Qh2dUK+otX32S8q3Bt/VwlKOOlY3Px4eDoeSy/H9/v33eMb7h28f/vTL45cP+Ap/7o/+u8mmUlB8jsvdLiT35G/gjAO5Lu++oSxYMilnfnibE+MLJZbWjhTtka/VV9bUlq8gHIryDim0eZ1UPXnLx5G70ZW8DTS74iNXN7ULHwoboi6LbSpsnWzZT4jG2US62rjimc9dbPwEnA5r0MbEsC8pDFo9NjQ/ecQ6l/NgZ39AF9SP9wgYOt90wMk5uftspRW/jTsgLG4NEvKCrG5LwtldaU8LhzCvnmupzk5TNX+nBkulJtuN4iGMksbWiUS2szR2U8bVhZmW3aorDG+7X+lCsbWUFPtiIXpTbLmqTqcUzviltyXcB7PcoTEFn+3mGjzmd01SrmA2YTQgVSLRmGIinWak1TASYQrCjc7TIjeqt85t4uu04tjIt7YheNPUqEeQoudQky72YUtWxeRrQeQ3zMRkc//05l9UtZ0cuA7o2dxgOnm93KMEKXkavvrw1c9+9e9/9T/sD/s/9kf/i+z5HZ/4q+mL6c8/fPXhXxz2h28h2F77feMyNNqYaaTTU0HBk54OBaU++dOUkIwgHvSQHJ4AYMSYM/LZFDxP9hrdIyslpJSRU0YeOpy1hpBap3AGaxmMppAHb3QvZ0R87zREpdX3ZglvI9S9oqKwFEG1FRNskPoBXyncwKpqlUnP4/O39jM77r/Z/3r4dviT91+//+/NLfmv/H//9uHbr8XgXBbHkLOTCXWjW+CmyuqWKu968TgvHGebUnOhOL/tdL/16tPCwUEL9dx5x0wspdrxXnuAEdXlFn1gjB3XZi8KlOZanBB2JjWGAGKeKrjbqEdB5Khfr61rnEviQpSCV6mpzXWXcTYMK6KWvw6eHebEVHzkYLWFyKFlr1zNlMF9DtP939JHrC66kSN+QIZ6XrUk6/mPE6R0sm2eJ6jd/fyiaX5d02HaE8wuHxAhLRnCQGOSa1xSw5JSO+HHvEkUlDzDZH6mgtAi9dBmW3fNOPK8KNmHebAKqjoVC7UC0/LC0b9uTq/0LiH0EDgmD7O1RCHV1klZI0Qsjq1h20Ww2qkd6q8aRbDOtH9nIbpGqm+E3qy/Tp3HnGENF1hF1PbZe65DlwkuBpfaRyTJRXFBBUKlJrKseK11WM+8HprliGVkS0w0GB2uoqKC4pLw+fPnn/3825//Nw8vD39HO309aNjxib+sn9d//fEXH/+Pj48f/53B0qhxTEpKSP6QHnZfpi9/OtiQJ5tenvzp+d/7vz9+p++ejzxq1DjssBv32o8JKTvcWzEQgC1eoUu/LSGlAcOQlQeDJYJraOq1G3L8bktImeLapmfuWk6QhDqEgi7/XUh7Z1Ld4Sosx0nT4YgjO6ne+ZNFN6PFXJUowt0FAwrL5O/8W3yOv+A3/NOHjw9/+uW3X37jgz9/yB+eDjw05ddZveOrArFZEn4Qx7FdPLTAqLT81mIw8ySAsWXRmQcuFwVoXfC7qg2nYcO4pr2hGz2kqR8cq4hwhGGjs8UmwYzjWPiH9V8fssyZO5o7or7L2ZI+0lJw1VADdOnCPO3fUZTus5UBHNowMBAeeuaaT2Q1FWc1M1JiM3xvRYSrLuRSoeAdh4CtmPK3/lPeKB4JryfQT7G1Pkez9hmNfqKQJVM5ltGSoXEYY4OmRhC7VhwEITe57IwrNs+s/oZxUVS6e29eKX64aJXPyOCYAVycUHjSkROsi4n1Ph8yR6nSGJPuUp8BOREPLqOHGXptRmsSrFJmnH27aITXsGL3avSmgnILhxxahATWiB2c29aW94ReRNSMKKKDCBuPXjyKjEeRU+s0CiKSdFp9PoXWxG3ecqVKi7hdmtfVBWHXT8NmsDRiTHvuued+2HE3GMwE6ZM+HT7pU0WFffXpq1+9+/juH5D0nLLhGT/HO/xl+ar8y+f3z/8ORBl8SI96zCPGJMh/wp88/iL94o92aTcWlsOTPX03len5gz58V1SOBIdHPdojHt+PGneNrK5xjKpT33ybZBepmTQbmsOWbPbbig0ZYWxTkVk9UbRl/SFppNHMEpsMmLPvpbZnFcJSBwsyV3NnEp/rPGuCciwoh4L/n7g3W5JkSa7EzlEz94jIzKp70QAGIhwIhjMERNhv/A2+8w/wARSZ/8F3tVAGMlwgJIBpNLrvUpkR7qaqfFA1c4uorLsBBOtK3lwqK5cId9PlbG1XqCq0KbQZzIxDJ+IK1cUXKSyRb6NkYaEtdm1/3P7PuteTfCP/8fm75/90+3D7x+1luyl037H7HduMxL/pn1g1zyhH97yTh6IyGvqJVEOf9fHdwDI0W3OgXMdSF6QLOBKQzrdLMvgEhFONMJARzyNUK2JOh3kSts0Aq+bSVRpwhzm8dB8/+IAo3Q868MGL6QuQseOcc3Gi7nA+U1kRJpiVwCLmO923nErCiEvNnZKMklFE3lshvwfq/1Ah8YdBQd77/J+qCalfmDxWHNYlFwBndz8BWIZYxu5YK+gmibmzARyuTU8U0s1PcJzN7QmOi8PXLES9aHheUMUjya8XjjLowXFx8iGASqbrldNBoNMGtoOUnd2jfRohaWmJYp2Z5eYlLIHy63CAL1RLp93wGhIBsKdRcAtueCx4CLrQYDQSSvEGUqCd0ZH3tiVOksqMZF/lhNDXT9SjeLClCGkHoEZuJriZ8GbCG4jNGRnXJrw50WIqoTrQksLbxrQS2e763vqKoFRUW7mWZz7XD/xw+Sgfn575/CQQ2X1v3/g336220unyoi9fFyvPAjnJLh8NRr7w7/cP+z9QuK+28tmfl2d/fiooQqG/lJenk5yWhcv5zPNlwVL/pPzJ7//R/vEfv+E3t8UXFC+++MITTlWhEJdOkd0NtivUVqxrrrvC9j20mwpgNxgQ0cBFNqWYiLztq7ztqzSrSdE8gmaWhVxPoAjfJ/hPFacUx9OlcamzFqYD8r2jq9Ex1XXFep40I714xGu3LkI0heqOfb/45TYowMlC0lU/8YX/IJ/kz+qt/urp9elPz8/nf9pko3lgQb8Uu/jFdePY7nRqLqdVVtzedodh0j2s6XEQS+6yWGCDSm9uvtzhseFLFdKAqNuzzYmDUIIKuEigQ0YbmIeZ2mLNqppLVcuCMZB4n9hXXRnYE0U7T1f8bnkA5qKiuw3R7gH2YT6b938FGE7JBmeB0lxrMzi507wVmGqVJmY6TCwd7pJNz0QS+BG6/ePfP0YE/0uCprzi3exvrFk4ntz9Qy8i8AS7Z4GW+50KmRKMHzNbKEQWiuUBLD8DWN19cfNzx0EAnPK1hEuIL9mdHEUjftWSqwN5R7fALlBManyCmUwNBIdy3YPe2mMNS154njw+ZheTWpLUbhjCZMCdGrtMtuixlIZC0iDeqCggDfQ4wN0bhB6hoENb4uJjidorYND9GCE+WQBarrH29NPZen61M6NHhaoiqhlNGmstKoim6frZX+dNqCEggz50Jb3zloXL8sSn9SM/Pv2R/NHHr+Xrr5749CwQ2Xy7Lr6cVqyftKhfni9eLuVb3PDHvvtLeSn/aF/Z3+9lvwLA6uvy7M/PF1wuBAdGsPv+lkrtSpBPfHp+5vPStRsdpE7gvBpMza2R9Mbo5OHwFevaO36jafW6K3UjSDHU8t3befn925NtJv7WVHZv/UJgdKZxwNXFeTkraj1iMe8xCg6q32kxLNJQg0mTDC7M+pPpNQlWgUi4GLjlmqtNFioBmsDajv26cZPd912hu9HM3Mxgu1709+VUfiev8u/P353//YfnD3/fXtpmtOY+gHr8WxSSGRoYzVxQ+ecVFZJMc2QBjdWQP24SOhEnvpb6MuGTZYgxe8H2O21aw2HcErkfFqJBc2CJCAmYeSdbu5mX5mFOl1XkWIYEBC7ivbCEK69PjAB2LKQnrca36tWTXcOZ/yt01G43U9RoQhU1r4C68FqbbVrkCkKXTQ1raYGBhmA0jJemldaPr674DqOth0/1VMNZY/KT/nQgvT4wNGbvq5O7PwF4giNe93XWPb32yDiPXSSTIRVTREwsNVdQS66voqDYwDxOHmrQrlSfgXTJqWQuIvlk3Q28n4uYOAmV2PnY7uFzHSAzA3juN1xJIaGTVHa3YInNa+y5nJp22c2nmdbHgj0sDAQtUwWZBaPlVRj/ZICdzLwGGJNJlYE3mj/n3ouIkTuEu0m4co786syrtsJ4EcIid4kqEqPWERzUMhWNeSEtDweLJO4hC5bThZenj/Lx4zOfX5749NUTnz5U1KWx7cXKRUS+USpOT6fFVrP22k5c+OZf+f/16fnTP+3cSeNl9fWJ4MVgxeG2lKVW1lWptvl2LSyrwdrNb62wnAoiOnYExsGDnkvRXEM6ADQ0a2w3hWr1WvthLQFLhVK9tXr69On59LtvpXhpUpYbLosxWb40F2qmRS7mWBUoR2Z5Z2jFoSTSpwxfxVCvrSd3dZyFYCHYY285YSmcdEsW3YJpX3NN2pWSuE1kECaXKydn87N/ar9q/3Wx5bR8t/zl16evv2tre9VV2yiisJ9F2/3FxQPpqn2srCQB6DJlAXHaIPTpQ4bOw0cAXRlR2Mf3mFcs1rVgU/E4yCDp8p04SDcMNcasCM0piGq1uIs7SiMg7kXdawOKANUY3nHdxdcI9tHhnY5+9nLwRJRqTviCCKMamSJJ0hK6i5NBBwMaYRs3bFr86sRVVXRfsGuVTUzRihjC+j2XpZ9l0f+UaQQT5jknGOovuR5+89e/8frOqCNuvoC5vori8eLwl2mSKP0COchqLm6js2BqPOZc9JLMKwGxuHl1eM3VWMnisbj7kuLCOphYR8EYF9hkAf84yvkEDSYvm3qsKaAeGcQ11aMtJB5UMByCGa5RnSqc5ozR6aT/PDWbleR9hsV34B2kQONmobiBoO+V9AZHFbo7insGR4UdgksAcC5HEdG4EUIMqcIdws3CoWu3LBwW6XGqhaqFbkJoEXgWESukC0pkrbFbW4/j7J3dqEzd8rpguSxYnlauLwXlUlGfVqynBYtDUN287tjbcl5W/RP93U1urk/62+++/u6/fiffve6+y+LL4vB6463dcNMqVc5yfiks54JyqazV4br59vbmbzcApbKeAIjRxgRKsBI0gahAFoffFEqCUGjKNQfYrWm0qFxdt4/um64KEjyvsPOiUmoUG2d4pYJRHwotqXGdKjx2/JJTCEGKOLG8ArwOAH4SMQ4xYzcSzb/DLG7sPlxpqQKCNJilrqR7c40XodDpDS/4nb/5P+CKP12+X/78V5df/U7/SDctuje02brl/7u1VQfCj+LBcRb4KBY9jVTSNUxGdIN7ydXWWGdNQmRMZwknwbJPtGobOEu4VNQhdI7Ccaxms2mjA2bOZl6KmZTwDhCLokcL/MPEc/HWtQh5b0x0VB5h5+8Jf/tuY4IHMql4+P+YG91MiJ0mu6jvUv0K96tW2QFsdG/7WjRISnSt4ibw0hQajgRfKhw/VSA+56z87OulPlQpMbOFYHX3heAyaTVKrp6WnCY41ks+wnqYeec9ZraaWRniwigY88uSX684RvEYrCw/nG7vLrI71sBI9ZsIWMlxihuIofdisiSS6YBDB7Ggg9Q+OpmWyrvuP9UfdY6fJy8ZTSi1dU5fmLpbJgU0SOJihBQN7UYhzIxFYoOrBe4tRjXTmDwM3i2h2SBsiPS4dPDkboLdquytyqYiqkVURUwjx9pUhFoFTpbIHUANqu9wYOianHd3qVlAlpmJJ5Clop4q62Xoc+i48XZ1OuVX8gd7sX96ldfff+Knb29+UzEpuXrC9/z+zeF2kcsKwUuRUivrsmA5GUwBfGpo9uZvuvvOgh7Sa11Cw+zMK8EikBqEN5EFy9odffvBKS7BqpIi8nwRv9geWkRaykRybMZna6epRb/7eFB/JADZ6EdA2NCk5NRQOqYyq+F7QZr/7Nj3HftVoc3HbNqFSKaTJfz9lFO54Wv8P37zj/Kd/Pen35/+6sPlw29fn1+/veLqs3XKL5hCfjznw4/7b1pVSWq0SiaQSt7PnlOJuPlo/nI6mUkymCj7czM6phVMBOAeiJMAOoFs3PLml8AiPJi8OStYJBC6maiDu+PEyDtflRTCCwQ1CRYLJ0+/nErGc99XWF0gIh2Y4LQBOc6MsEgkekokM9dlp2OnWwOxWbNrqXJtVTYx3/alaFFv+yJqQr+xmihgRdzVYEX8F9Ct50TI2RfLJjW6/9QC8ojIi7vXCJUfgPbi7ucHNladRtZjLM0EPrecQGKykGRl1SwS4YcV66viFlNHXlTLAM8PG4PygIGMAyW1JV1IxQPI9AkTCz+oHCtTlOc2ONjOmkWmr0cStKPlv2+pXsq8KyeHTUmyT5hrevMCgQT44YTSrErz5qgFVtyLO6POMJZW3T/RPcBtiQnIApuHeaytNs9CYsKmRVqLj6nWeF+rNC3iVggTut6FAvWg+RAoOb9oxDZoJZZOKenVBBAilKWirhlVL13f09j2rWzbdtq+u9nt9aa33c2loCziIjfethtum4npSU4iIlJYSmGphWV191sWLGnebMeuBUX6Kqbz+9N9V2ZxoEBYvUoKFPvKSdLafS0oVUrUkVEM/PPD8dGp98scSN6to/JjXQHfKcN4FDC+o0ExEGowWvQ2OneIqRmxOa6gCxqFIstp2dfz+it8h//AK78+fX/6eDqfUGrZ4HeU7J8iMPvJFN5p5dRXTJKTBM0smJpRSPqZULJ4lGRlFTOTiURTstGX2X23f40HlTpnVhcHxuA9m1V16wAAIABJREFUKXVzhKZDHSsjU7zG4wkGiu5ld0DMzpHy6ZJGayIpiNZkQykxyMXWBSY9wNHGBWApCrEMjLbuUsTUyhHewi/TTQAVQ3P6OMDpfnNyh2Nbo0nctr1cTWjbWvftVGw7Va3NfDtVaw53iosp2lJ+7uTwmC9vjwXk50wgo3CY2pHx4fc+GDkGDrPEvtfsHUNmnPfVlvTCkIVAzGyBo8BigukTSGIfNf/tMixNjuLxqEafeeIHFXhWsx6PQgJqsTtmnzDihkxMhJYGUgaw+fG29bcdWAPo9b5qgobdrhjgjZASSWVBzRCwxrc2B2QxGAoUTnMzuMMKIeaglQhMDgU1FKAmUNMkokPVhbd08TQXuQUGIjcrbK3IZkX2VqU5aVbYYiIJLEfj454JaO9RPPkAoo9pVKHYsSfJ3kdqnzDcbgXhYNvQ9t33TaHthtv25m+7u8vq67L6uhpNN2x6leu+ylpEhGc5nyprLSxLfs1SUZeCIlPoEwtK6Z5TRrMjucwsqbB7Y9scrguWWryUpPKGbgWFC5ZSvXaXXj5YlDwK2u6Ego9eS4/FZgLKpT8mHQN5xw7FjpDnANEljBu8soZ2LFXs+fu1/P1avq0AbOeuBmtb2V7xjL87fXv6C77xz9fv1r+4fHX526UsuOLapoL0Q0XjS4FD/kWLkgN7GNuGuzMgXks2kQKHuntNp4q8jaDpRoGJ0j9wr3dwVhnK8CmaOJ+H2c23TDt+zyaYcau5BWgOVEdtCEUqiKU4yh527VUOSwIhg+ebayqzWPxqNo2DaZZniwUBJ6n7cM3NhgqoUGsUbhaeWD2eVulQRjDdNQV9zYHtfJW2L6Lna9Prednw3YbX56Wdbs3bUvy7l5MB+CUF5L3n+mdPH3cTiDYt7AKKMCCcRWY7HOrwvWeeZ+cgiWXEw5WA2TRVxNoqTBXHpDEKiHmfOuaVVu9YykTj5d3YPN73d/PM3Yd1SCQiuB8DbBye3p/wrDzBWPLoXOJ6c2WuouK1axBE4qzNdZNHAlmPNYy4rGqONC2ghaajGOHmYKG0Yi7F6QWhExKPVj8TRRqTeqtg84LNSSXhVuRqwt0i0axpkd0KVbM4xBorgHQnoUU0p42+DO8WJ482+Z/ZF+Qe3jbftjd/uz7z+exwTQM/FJTFYKWgtIKyECwNTT/5p+vmm5ob8jDljl137qq5QbvwcjnhdBHIUlAWgdS82S1tSbQXD3GRvhJqaJvD/cbb9YbbdsOt7QzvKKfv6qqFpQiEiy9VoaXrRAQiBUUKSu0kAdz7YWFWOM9d/0NQ1LtK/S5AFEihswddfXazzkyxxDeicHoUzvz6BGAG08Z2233fNm43gaDFMGw33G4m5vZif1c+lv9t0eUkLnLaT5f1vPqK1a646jsT1Xveaj/lkJmkHHGl5qShSeG3nDDUzRczIxytY6FuM88s3s/NRS9AdVbXTMQZTCJmJEtzziHqi6I7rIiehzOx+5RPlOvnsNmO8LVF3MsOl6U3hDl9SMRFl/hmbh5nYFcJFgw3bWeunC2zzXMtxB0RftdANAobzRs9igSAG0MDomHFH+JFMXMtAnNYUXMtorWZa5GuWodW8dupKgCs3yi+/er8S6eQH524f6yAHEpyNU+7c3XzQOmJceh3ylxeFM3dFxgsrUg4dp3mY7WRncgxndjYkS5ZJHrxKNPqahm0uMnxN0Kn7mMwOwPCfRbE+OQOnBbmA/dKmA99KmWstd1LxkFJGImwpZOtpgtJQawcLG1rrLtnd4NcDX64gyyGQMQd0ZO4wNVhCyBOmrpbdVLcu/GSgdQYh9nI3E/GBKIQ7irSvFN0i+ytULWWFpMIW5CKyWRhuUua8AjhBwvLv3B4zCp+dhqtQv3q1333XdXVOp10WO2BrKxL9VrNzdTVFepCKfRukx08ooIiK9dl5XqqrKcFyzmngmqwlp17IVhOOK1nnNcTTucV6zkL1O2Nb2+vfH17xevbjTc1WEwbXmtBqVkkSrK4qsEk9+LDWaGgFIJV/L6IPBSQIUKdi8YhgDoCqvoqK11r+opNHuw2Yo7imC72htYcPodYdXV7V7zT4cWCUCQGKwq1hoYbb2hsTatez5fzb+s3decb/+L86fx3l+fLP1/LFZtvW2JL700W9gWK5xdtwhO/8MGugms2kaUD6m6DTIPp3q85jfRmsibLsrr5OtmY1IemkdP9P0dBPMZgI73rDH6fte6OU1LjYVFYikQnRHEshNsOrBLTRmEwsbyRltlapvRdEtjPpTadg9vL2Eq4pWmawtlI7IxadHP65vQbnW8AriBuDl7p3gA0MTdxb6LxyFV1xW5tsh7RiX47KLf/w9/+bjQ5/5Y56J8VkO1tc3e3Uoq6evPI4b1RWKxZzcRAg2PLYrHkBdExjJa0X4fj3E3O+hg7AWvdyqQ+UPrYQbUEz7tVidzRhGdr5Ym2mwfEw3RyeMV0UOS4j1NoGMUi7RCoKQbSg2cBS89G8+gwOJkglm6a0/MsMxOuuJAlTA1oXXoYi7O+E2MNQxXLGDPvNN6cPpqE1XNjrJ92CpuJNC9UDwxEtUqzIk3jY26E6SJNi1h6vSfhONXU5I/ZHkhBYUWVhUt94lN94tO6cl2662wqwJtCW19nFQ8wnGRZuCyVdQ9JeISDCQUr18Vo8sSn84mnk0BKZT0XlDUtPax5a+pqK9f1hS/yzOfnF758POH0BAAbtu2Nb7fv8N3rldeNIFas68lP6wmndfFlWbAs3bW3otaK2skAcyhQSVffXrBkXjfNeR13Tq+qwK6IASkt98akQqB4RKdDQ0Pix7oKgButxcWnaGiuUJgbvZCoQhdaOgzv3QZFoaqMoqERdS8OXwRi7o7Ghk/Pn/75cr78tv6h/k/L98t/fPr49H9///S9VlTZsDW8b7j3GE4E/JhV+JFH4xMbMmj6lmSaNBnN9dYyFY81i8fi5mvHUXPrUAdwftz3fRLp7+dEMoW2Hdeudqgu328YmUARJi8jzRSmgcG6uhdEFLTvnS7MsOpO4LYl6C0Wh71LCBQPNqgP81PQu6bClcAO5w30RsfuzKkjTE13xJSi4m4031Nrwqo+h/HN2ix9cOL4UqTwv3kBsbY1iIgZrWU3sYN4g4YOw9xsFBD4yW1cDHuC5HGFBbDuM6/bzWtm3JR8GaBaFpLO3MAD+2KMytP4/Bibce9pNO1mP0tFujNv8xouvcne4JQpFPBAF8SyLz+ZUHfPWfA87D277H4xGeMwcgHNwZoWbxGLDFri0SpAtWH7alHgqCVsR4zC3UGlQF2oVrgZ2SjSrMquQkUJZoaTvi9lG5GkcWqH8UqKjgaIfmBC5fGQKCiyYi3P8ry+8OX0xKfTE5/OJ5yWM89ngQw8Ql1bKG5HpyQLluXE03Lh5WRinuscklwLigiFT3y65PrLd9+34Eybbb69Xv36ZjA+8/npWZ75zOcPz3z+ULWeG5oWlAqCGzbbsfsJp+Xs56eLXy4XXC6LL3XBcqqotUfcdh+vB3yiTOpgmbQanFx5fQJqY2ZVJz7t1a9XAeheJEOCM0VTxCKgWUaH7O6GWM0pc4kDaBPYU4oi1auYPS83W6QJpe3YN4fvBtPuRFtRF4G4QExcmkC2gnIzmPnisn/Y/1t5LX+QV/nzyzeXvzyv59u1Xkt+rR8LGXrPifnubXc/jNltOugPLLJ2puWDnqzrv9acMNZJF7Y+2Cd1yj8mzKNTgB8LDA8G7fh5h2t1FG3uiJWXGxDTvR8rbebXTBp9YdJ0W9oLxS0DFZAUsHqAFZ2sLxnR436kteYP1OBQoSscYW7qCaw7WuLxezKweofs4qNIvJfw+p7J7Xgu/9f/Rfj/xxRSv/1v33K/7VhOi0oRuHuTIjcKzdRAcu8TyVCOA6ubnxL0fs4nuydcLVkt137RmVud2Fqjteuj8ATODaJDgvbd8bcMu4D5QbxHN+UBB5nvl067F8zuvIA4XVPwVY5Ggpp+ZUx21sEIzBQPP8g1Zh4CfENqOzhmcLY80FMyEr9ySSm9sPs5uETZaxYq9IbOxCLVq2wgNZ24ekHREA6KWqF6kn6UMMuDLYIRYmWGL+c4JEWRLCjlwsv6wpfLH8kfPX/gh+cTT6cV61pZ64KlhqbKqVDNBxUKdYezoJzOPD+5uKirP/pIkcSFl/OZ5yeH4+rXTwptDrfd95tCvbDUr/DV14ssy8lPzxdcXhTqcNzSg0sKSi1Bdqsh1ArRamIqa/GyTGwteXzNWDUzbb99YnXJ5Gbgd2utsKchlkrgHKBHXUqWnLAWMw+K5lSMppXUSC2sqJogoobBhphx3R1lV1etqJtCd2VYnHRQPQ5C88wN2U443W647ULB/mH/tL6u/yB/kL88fXv6q6eXp999evlkN95uyfDyHwHQvxQPe6c1yN+Jo4h0sTBRQNSkUncK/srIFD/luSCdxUmwOnxJ8V/NayknCy/3h+ZICey0/eL+2SHaWZeOQYV3O8B0KAG1aQXUYxbEITspEJf4VawyND9lB2ufOBhgSAVRit2xPWM3Tog423Q+yKhEnQ5PLB5eWCuI5xCT8gUArZBGrm2RYsLVhG1fymZFdF9k35bStIrtS/HruaoWca3iLXLS8ev/ufwcNt2ccqiPavSfTOP99rff+uXjhftt91JLrG1iJTUiD82smw2qRT5Oc+vVd2ITHP4sMhkidh8cPtB+2bnc83QxJZhJLyjvFI73vF40R9x5L8MHwP14nQ54WQ4MxyErfbcJuJIMZS0ggUtMw8p08RooktBi+BcQSrcsDITTOAQiMUYX0AQJ6Idc1SSou04e2MdgjksvGGLINRaFZpRA+UjXIkEpTG+UnjT3kPPwGUdcIFy5lgsvy0d+vHzgh6cnPl1WrKfK2qmpZeBRySbqXXTI+EtZsKy9qAztQkxlJhBZua4LltVgvmO/mYfWoaHtDU0jAyx5uBAppYjBmpq2HbvSyeKlrliLQLhjt1e+bpa5YEnrRvU6GyEibejjujxSL7yzQfqk8Q74PbGPFGwqaE1QivlajXXphF6GGV58DTqlr8Z6QzQVE5sySeJfkuYONZiuWHel7ubhkzUVoPGYN7R9xXo947w1NOVC2rP9Qb6Xa7mVP3l6e/p3y/Pyz0LpOSn2ma3Xz7Mrmd+WtAGKrA5DFwfWLAjDEqkXEjDTRjumihHPUKbmrXR3EDKMSvuEEoLx2Won8nnwfpxrsqACP8htQTOHlpRvGWCaDv8ask4qetAMCYnvmXdQmOIi/XkN6hLNpDwQdkaiFNHT7ARk9RAtFydXJy5OasYzIAXB1URqq1y0SDXh1moJnVeltVr2fS3aqqgWsVbE2iJuQr9jV/70AtKxlW0SE/5sMH32wkLbGqREdldmbHQgXBObkGRf1IcQmCXJ9yXHU+aTuDv8nEyNdAJB8xjlMBWMWHH72PXViUJJfl445v2foIe93seSzl45fCDx+zRN5NcYVcEYdADGgeno2RruqRjLhD+fUsqDvYUC0Cyc0iTFupJLrBAajcAotvwHXSFvEjhIhFiJeNgv0hDrqubChiKxlgqDBDMhPZycCBFDcghdDpXqg533lwRGUlBKZV0WLguAYjA0NFNXz8OfUyfaXVF7ol8pKMsJp7NQqtM98YfZygNCmbt83nDbzU2vuF5zhdVDotDYdMe+3+R2e/XX1zd/u5mbnP38ZDBPGq/ecNsD3nU4PQRqTPsPsLv01qQIz1qMHmZs7o4MsepFZNLrx6kCqcLLmVgqIIVYFmEpQ4twCP2EWUB4uF1A2G0/jmdigPU9H10gSnARl6bQHcSegsIBtDOiBsrCRehcBNKcbn7xDSte+Yl/ut7WP158uSxYtKG1dw6Gn7M/v1eG5/M9FOJH+Fs/T7reqw5vvUwh7aFxYz3Fjm3cxUUcYj1HydXybGUk/mX1tU8Th99112RqamhBjoFZ2lREk3c410TXY8FMpSNSC32hQZyIqEAPS2sBKI4qoYZnN+Fj+HF13ZU4WZ2oLqxaRJxYTeRNC1ct8mrC57bIaytyS4xz1yKbVqoWaXtgnpqUfNUSdOHJisl/RvHoQVKvAN7wfmzuT1aio21N6lplOnzl6A6yewjWRBmajYiiPfe/z64CaRNyyY8t4+v4AMU6cPZwUdynuiZlrtyxLd5P83s8GHuxmVlb9y5ZHPS7LkZmNIN9Gp0ezJhSJP8u+7CM/MAUWM4R1hJ2CEMnGKEyGF3nFPzMbvQU4016dEYQlgAQSRgvLkcSiGJBgBAX7tFTk3AUCyaWs08Kc7zmD9h79wkjaa5FXf0VrzeCW0WtZ55PZ5yfEmM4V9bF4SYuWlnXgrIsWNYnPn3oj3JfGY3Vx7QW6h83WNu5t8UXa2hGsp5wWggWc7OG1hpbe+Pb9erXXaGoqGvxIo2t3XDbdu66+aaV1Zq3VlAqQTUaBNJNCL2g6DsZH51B1a1Iutpb4kEdHy8UEutiXJeCHBkfqb+jmEyT3sPvzXd2256rNBqMZWxr3AXSpw9MgLxkQXSDoaIWc1MuNK7c8B3WqvXlyZ8+3HDT3ffrjl2/0Dr4T1Qvz2SVw7D0iKKWYYPkY1XVnSWWdKGYnQ3qhHO4Bz4idxuMAZZPXngpLOQ9oWZuLfv9HDjlPTZiaW7oh3G7w0inhSWREhADWnjxCi11m1FI4mnKBbEBXpNm4YRaoKeaHUdf7xFCcbI50FxYTFjSIWJpVZYsIGctsrdFrpq6Li1Mkow07WtrUq3IHjEPNMxhu/cuve89xzZJM64Avp+o/N0T6+dhIJePl0g5WSulCKVIJdlzQM4ALml2eHHzk4uf3fLF/eTwFzguAE4OD+PFAMqQFwkegK+uLp1DZeYRuzwYPOpUNiQ7E3zOQvDuZyLv3AjyUGn6kx69gnOeTAx+9yRU0FtINjI7m93GA92QEZ6pY6OohJsuk6HlMdWwx6UFoNLHJjmyVYhcmgkcIsrDJ8NdCBE6REJVm8C4x+RhLrShX/sZxaM/LB0LcDg2bKoeOMeZZ/+Ijy/PfH458/xy4umShQbGELxV1JPDLeNk79TYuYO3zizC4eLcY2v3BctaUZcd+37i6UwQN7vtN7/dstCgeXM4pHotC5a1el0KSr3iusWoJ8Xh4nSohyOtwdxoXV/SOnW3n+mTsHC2G5k9reJ9l1pQXETEQRMe67Hpdf+eNgdY4QiZmieVz0zvJpxEDWZKtY559Jc7r7ejCHs3FmauM6rWl+ft+cNreX294toU6l8wWPyxhME7q6M7z7xDJS5pYVSHmjy1XFk0OvtSDiKNH0yqmKd7wTiKxNFwMv2tplV4/1mG8S0OU9z7jHLmhMmx56fmnsu74SrnNKg0T2UJPi7C+Ib99py+D3YHCyIucwSVsc8t4UEXQXWUPoWY8GRCaiG0CK2wapHaqtz2pdScMJpJFg4mkYZsQYwZBrDvRY5/Se9jD0aKzLXV6xfOzJ8+gSynhWZWSi0FwEmKrO5+Ifnk5k/u/uzuJxe/uPnF6WenL2b2Qufq7k/ufqbzKQGz9YF5USdKXp18rOoD62DOopYYW7tNdv7dOA794IgHa0o488fH1+mJnrPPU3QviT0MetUx3bjcx6mj5IKsTqXL3FESRXMwGB6eKyPxMWF0a3gbu6+YOsbqAxPrwwmL6y9//n4oZD9sfUMrbJREpoNlJckptGA2uU3W4z9lR9E7S6qrgUDzpslS48LltHBZV67nLv4j2WObujGlCESEUvkQjWceORhDHT2JLwymC5bTmefnYCuRzdsulJu66pu93WBR4BwuAqkZWRuajiju3t93OJRq+ewZQTS0Nu5s9cLbLklsGIWiixajs+fISZc4r8zDxNEhYlyWCJPqynEO00OmD1eZNCZ3z8NDAXlwtEydCHVvaPuOfdu5bzv2bfbGAoCk9zaDqUBklVVwwhtXvvHKr8/X85+s5/UPQrkRyQT6ZRlTTL+7yQsui8hhKVQmz7oOokvXdz3c42VeVcXnjYIw5/88Np0PLKzZBn4Eex6Hp0cOaB/7jrWXc1p1ed8E6LjjMQzw0vCMO2OxSgOkoz8GFaFPsKjlfd6DH9wisM4ZBaRooVn4sVUVrllAihaRVqUmeK4W5qjNhWYR09CCUcnO68wi4j5NDu+Fns0CyzZNH9v0XPzi5LE69t+1iJQwz6PwBMczyQuADwTPWUguBrskOPZE8pwYx4ngxeHnTB5cEsdY5r3oxLQYF1Nn9UxdFY8LjDGREPf+sROxKls/Afuyf1B/OQrFHFrD4bjY8RPvlnCdYTU//EGiIqdJqQzpYnxGyxugX8qGbm51XMgZ3T54wez2vhgaFZCECPPkj8JQ4qLsC6zuuRMoo+UDkBc7k7I7G9Hg56TSTbYcw/GYIBYsdaLB9iJR+tpGINLt+1OkV/K5HsyhYEceQUsdZ+hrmcJSK+oqEMmwKJx5bu4uDc3e8LavvqpCLQFxEuTiy5KeXN6nnr5SCrOiB4DR3bk3K9++rqKe0ceUYiSaFyorIEVYhNPl1gK/cUIMtQDPF/Ul1Dw5HbSecdKtVDDH6IoA62JWYJOp4sEMm6xPBjkhC8kV17c3vr3t2PeZTZXTnzlCpGkwlyqvVWqDQrCjplfCmPh+UfF4Xzt0WArdFxfOwt/JHFFSQCjhJtU/Ly3Wh5FiLyo+G5eWu5XVQcHktLbibF50bCjSb/GwV+9nguUNbOltFNyTaL5ggY9A+/ZY3Fu0ZF4ktosi3fcq1mHCtIQmWtL2m8XCywh6d8/29KnzcMuGCkULi5M1XbRFJazVLIB2A1FBuAk0Y64nk+A7LY+9Uzwa7tNGZxD9F9u5A0A9PZ8kojxZKEGtI7nSeQJxTjv3CwTPMFxInkE8ZZG5JMPinJNHLx5LV5Pn68g3PzAOGUI+oPTchDv3yhTrTb+w8I5OOOIkJf3O0onqnj/Ng5k1geqcdlnzJtwdTjmyjHLBFIxY8wO60G7imEwQ766cfcVm86TDI1mGg9B7d8RH/OYAURwElQM7yflD4ndM5oLISNZ1Ju13rB0YAsKf7YsTbNXDLyoPQxaUgVk4IhDpoevhtOP3ebpQ133HfssVDHLXLwSLQvfNt6vBLFdjp45TGGx95vP+xrfbCafbinXbsLWBVXhQj+HRjfcVWe/w+1rnDqegA6vt8lF2tuCviFPq7stpU5HNFmehw+iTdUmo8rO47nTXq0HoTndLfZp5D3Iis9jkRSiwRax9db5aqfo4iQwX30MZ39lbtmPfcwLZN277NIHc6VQUGgFbJ30ta3nF9/hj3331YePj/4I+Ew+MeRxZn3euEI7cMvRQqUfvurn4yOToKw9TxlyMek29/9ijENY/t1GeSP10j5xUz42Ad1JD2peMVXO+tEAencKoeMmMyUHEawgSVSIiyCUsi6xIhLjFJiGnBGF43EXIm6dfXXOBhfWQYMQwBOju4IhgSK3xnQGqPNi5WF52Oq31bbBTj0KxIzJArgmcz4FSd9PLT460lRIx0J1Pn/zsE4XV3U8Uru5+huMC4pRTR+AjQck7o8ff+mBb1AGscYDxMuV3lAnvmC/s8nBhTAD02HTOjft8RPIgNI0uRt7vpnz4vd+NAh2A6wyr0I309MpKcM/OqIJs07TcsYcOXNssXOwX69xFdQRgGKF4Wr7FYstILzkOa94hkk+xxIXCJIpBc/Zy795fZJ/Bfw6joheQTEccoLdLYIj9kDCFtknsGSK52KVJaClTWRcg+NbQbh1Pqaw1i4c5XHffb1e/fjKYFhQpLIGfMEQsDsfCpftYle4ym3RZjoyNvlbMJqWgiLiUh1WapeU+/LIcsITTYaJ6wYbmVliL5aWVXb7mhDH883K3cVCZY+U9Oo9goJWS6z2wiPtSXVg4K919XkHEvpDS0fm0dM8CzupVjBGT/UgGSCdg+uI3r/5K45+xcemLOPBfEF06BTeNSTyu8TJIAhEmV+bZN1mXGLbtxypMjtv5QFuy0s/3MRK7wNDyzt/A7y3353PD72fvwYTMRq5X8EOchcMlImnZZnRXB1sOCwneUTP0rZuuRlpoHtQxLQT9Ppo4dUJBUSfcpAfAhdbLha6FLSm9noFwXQCctil3eeh8KCL+jiB0njo2HOmDWxaPTxP7qheRnz2F/Ppvfs1aapE0N5MopHcK3UNVyhEzOxhVw/Twc8ZWGeuq+47hMf3w3s3mDiC8+9y7vR6Pi7P0C2nqZLq2o1OMxQfMcKdO9+Hr3SUpo2jAElhPoWP3dB5PGqZExO5aUbqzQUw9XVcSdGSLSemeCTbdN5m0WzgWVNHfSkzQCQSxYyXGezPr8ANlt6B/1+vqx2h+feVkSZ9uBLWwsLD0WNl+6GlaalgCxjAYFHp1uLodmoU86LywlFxRlamjdYWWwiLq2m64vUW1DYyjoe0G23tBWHwpO/YM9pI5X4MSg2Zxuhcf+Ej3veJjV9ptP6dZkFKHj9Xkh6XNuO8NbR+CSBzFstNv59VSbCIXKaileOlFQYRFpsLrD/qOz54vo1la0i8EsXJVde04COYiFBkDJATN6Rb7D1mKl5qFltrTa/6V/zDEY3ywFvIHnINzuiA7oyS1Fr2oDDAjwAneF485S3sGl5IFed90jgJ2T2bnnS2888HDPyMDDRANar1bOqsScApcHNa8D6gwJ1pQ8KlKNJKKjJYOdTrhAvUizUG3wt0HFVd2Z1Byc0IxZ0wzgwiQH0v8Y5B03sE4Zs+sbXq55ssti8anqYjMBWT8+clCwnGzJ+AIwBi/uMHzB/LUdER6oLq5ZjfSu5J+qNznKjgwFZF7NtQ9IZ/vHK2P6xESd2OzcP4XYbTYO5h51AU/C0saiWH5ZCTDIk6UVJWlb8ldEXEkGwtpwti9tkb2CHmE1Y7AmSPzuU8+6I7q2Sp1VomN8NTU4Fjws0Zb5amogqdLsLhlyTTeG8o5Ps/8eATY5nWTpTHhyeF7lqeN4CToAAAgAElEQVRWUUtF5YKldE1FdshusCbO5eTrC4R+9ds3V1zfukq9oq4r15NA1sKy9GnA3KwrxYVSPPK0dPf9zWDbivVisEVdd4PtCxecy7lsvpXddqir54059BM791v/vmHPXTp7qqSVScfcJtLjnW6or7tmh14HWMLSrEx7zWOvko+DTQwrpKq/Vq+1sNQ0jCwzeN4tYSaMaE4RDNZaPE4Uxgpx822L3uIoPAr1TnXulvvFigkEcpOXZV9OsggYB479wvqACduw6Z6dmxXpepo8M7oTWIelLCc+HkNFxyjmvA8vB7XkbnXtua7u1cIfGsJpIHn3+n4UHiPXWb34DNWyZ1iQOKFpZi2RNgoJ7x5fAEv9iNbI8VGSGxkJohTZQzzKzpBsLuImbC4wE9HERDRcszFjJJMNEa27iMcKi7Obto/JJ+1RHlZVt6lo9CLSJ4/XhwLys3PRAaC2vQWxh2wgqnv6tzhu7r65+y0nD7imNTM8gmOOkJjutLtPFiXz/tOTsXGk4I395p2leGH3sgmGk+HelXOuLY674SUOYU5OvBx7nmP6eKBtpDNDnwU8HavS34a53uDBEvbIifJU4nrackrnnE9W8ikoGoF3Pnl7cXRRjuHrSR7hmDlJe1QWGhxq7haBV7HTDB0GLddpLUuT4nCJ1S/YVXx2kyV2IArd1XUTChcuOPHElatUVqmsJQ9+9jVSbVxF7STr4oss645dGK72JVXs54Kycth+dSLZ0Fl4ZWVibru6bikmbKlud6f7iSc58YQrrn06gkBqqt63HftbQ7MSa6PWY2GNpnQuBJceTzv9LD8EHA+qRhoz3oVDpdjRpknCcr3kuQS0fI4O/YZ7YbdVCbxD5k1uCgsxFQjLQqINbS8UUdcB1htMd+57w24bt1tja+bmz+05tgAbPyxvy3O5FM8Cor+ogPhnGwRPwlI/D+6U3/OkfjcFHEWC3ecYd1EN0zxwxEhPYmD2MLd+AMyedz4VEX7ZoqXHlgfI9ZBnnqao+STkFzRGdIMApsK0XkeroNHhraAJIjmU4cihQjQT2UmYBb1ekfHTHh9TZ19XQbWKZvaPGWlhaZFalSgcj35lHfyO6YHshWN7KB7XhwLy9g4G8ovCpACgWgubA6nS6AwL96DXLu7+5gjhjLu7mdX0/TcPYwadBvGeXd7r4+Idm/I7zEOnSeS++4goWdJHKJ6nUrUfjGViWUmPs6V3GuCd+WIWD+9XFA8J+phMutDdnJmh3olNeZH1pamPhpOCMEljxGm7dSMD5wDqpbM8jot/TEXT9T7fILnhZU/UycmPEWTFsE0wuKs5TZB5JQG2p2WDez94J6bFj3kfpRWLsaF5QysbNrvgcjrzvJ555oqVC5aabCxJjCItX7Spt6s61WB7RS0W6qtuJqhO3zOGtsfSShbsDNsRN5qtvtbGZg5viaUIHK15e1XoJ4W+EryKi2YuuiULbFPo90bT4mUleMkiZ/SB6YiEruvOKPGLIPEh/HOBvJcvbgLxJAZ0inJLvMRDySxMQ8fC5kU2W0StjMdvirmdwHQZmpTwiEocxEoFqgLNcvdupO3gbuL769n223p7Jam66DcLl8aNL6dvT39av6r/hcLtJxQQfuFjdy9TbHW3Demarq4t6Maoe54JCo9G3n245koe4gV3Bsi45wc8TPC4TyYc66qhBnHvTkLvXffuswjo2Izdfe1cZZnF6aDmtCgibgKq0VVBS16FGqkV3NNF2yG8NWFDFo74zdkgETedGEczgeckEkUjX3KR7i7QyYpIh1FkNAMd47hNhWN7wDreHtZXj3jI9ksnj1//za8JgHW/7S6Rq2sU7t0DKy3ckdnGlv83U7uMj/UoH/M5mcynRZRPATCP3V2ZfviczIOqll3CPCrL1LlIbjKHFqQDb/Q7KwSiyy1wp17nbJQ1KNw+5WQkGBumexM2k+Nsbpttwkd4mLYDIJsfhbHrWfTOPfju7zsBZOxovcsnAG/IxDJ3NDhbvE0l2TzSV1q4fLJ3JsNg4Etg+ePb3Q9q9/3N6RSEHfqChSvXWhmYQmo8SlKNvBW7qtgnl11ziumeUvEfZc7yLhh0O+/+WWJuqKggeT7hdE4Ka1PXzdw+KfR7dX2D400gN4E0gktFZSYi3gheFXorKEuut2zBcl6wlEwn3AWCZPxJp9/2Lp8/oqfjcO6+YyY5QTWYOX1vaLcd+6bUSMkxLVQTmItsbS3fXNfytp+YPhckRYy9IFMksq5iQhmeBIf3GF1RxRj3KwXGgoZar4Zf7Vev9oaKZk/29/gD/kfs+LC8LV+vbW2oeAXjcH+nWLznj/aeYn6sATM1VFLntYzmMGKqA8aIXKCWJHmGjiqLCTpLw7tzpbEXJZ8e3nvmi0/K9Ts31fwaMswdYgcwu0nMT2bi5Z/hIrM2xC1YvKbxWoXUFvioBrlFWiP2AmgjmxDqMXU0F+4CWtgMcQcRRqipDXHStCTmIQGSW4DxZkHR14F5pPYj9yAN8J2OmwlvU4HY3lld3R7+bl5xzfRd/7nYx5hAltPit083NzUrSzGSez/QM1WMMXyYj8kjpg9PvxtPyt6gmncq37QfnQGtrvPYh9T/gcPsQOFnRIqh2bA+7vqxqrq3Pp555MP8b5pC/E6BFEnmh2ixz7U9vlIOiWtnQT0cwImYIINr3H1NAoWi27vcTxzyUEyZlGA5FLnOyD10QWGOsSOa2R6sM+wHFKn4gcPhLr61eWNj61noJaeGmuufQZLoBcThJlKKAs0fRG6zIJThPiqPB1XiZprdfJ9QxGBXc9sd3pJSHJOAC8TFCZpAvHhBQRGjccWKHfuemSU90W7JCcKSJjvCsjIUa8+fwWZPqscDdFaR+53PcxQfpWpD23bst537rtbUWwPfbsLrttBBVWvN9CZir2nemYYnJmW3xU+LU4rlag8FUugokkUXJFCl2YenzU/Vyfhdmre9FfleTtyfuGDBAnmSP2DBd9jxQZo8P709PddT/fuN2+1HJo/PrpnolEymRq4LgjUJM5HfHupzzZZTEGF0/UoVuCsi/mEwIBEq9RZ+V57xCijTaqvH7fTurG80OO3TiB6YgEGTs1lGn581r9Q6nPiYMplYYIbU5qqIQHNCFdjpCKAcI/Stkdw8sI8NhAppAHeLKIYdhJqIIoqGAYAWti4ytHDQ1p7fkxk+NtHTup3ljvwZnAwQ3HGFsE8Y7WEC6QVFH17sX6N4AGD9+O8++m//99+ibW2kEYKI6FqCrmE9kPtOy+hanRIIP+YFg7yg/EHz0UfdOh0f3c+n26DKQ5FIgtHg9PnDjuEAyOc11qABd5eQY1p5p9XiOJD9zqCgc1iZHifsnod0ljjIh/nOsGTJf9cBdU4X6Mw5j/sx3EW7r4QQ79nSMwpxNKCFDqGkKpeYler6DoVPviAC8y8IwwaN2uHF3St4OKZ2c8Oxk886mR5TOlltKAddTZZOC+86B9zrKlSht933Tzv2N4HUinqeGVAEa0VlZb0JZMu10FJQkAyrFQAWX3zFemtomqww9qCokVUe+Gv/+VWpTaFbsqt0csf9bKU1CSDvuPedDJ6/UxNIK14a3cFmlBsrbCHgCMSwNDv5jtSoAIDsShRtdirNCrv7s1MgqNULSwfexWsxv5Tda+j/He5GMcWyn4Rc3JYVa11Oy1W+kv/Dd38Wk8vl0+WPzx/P/+VN3raHKYo/sOLELO71g9VYsomSkS4Yxbq7TgR113wZ2eg+NFK56nbm5yuiCZ2ZvLzXjAyQsHeT4gdLc6bx8mGtNfy3ByQYqz8eNJY7E5T7/JNIIm2Zg64N2AlsRjZ1NwGuLQSDO4gm4OaJgbhwh0iTBM9BqMfbE+7BHqXtVqRZLxj5uX2Fb0KNVSzUJIqEMyaPjMa9eoDh14l9tT9MGfqg9fhB88Uf04D09RUA1t/89W/8w3/+oPVUF2vm2rSxJyqlICh3kA7Dc/6Ai7vfEA69G8Jtc3N4WJgcYNrycHFO4iDA4WXqoAsOAvjBnvJ73GJWvPJhvJ6jbf1QrfNhlBlehrynE3tKz+wd2pKmO0l+frclGXjOMWXd8c59mX/3vOpLjBbj5/fxM8XFGKpzQQFpJGpG3Ha7bM2O3idGjKfhm7p7ITlM/b5QRN4DizuoO0KABLISXBVKddXG1sQFgmHhoZMdAnrgVO7+l6T6DlX71OFHpKu37erXq8OtstIQOeoA1tSJGAAzt6rUarSFpBQv55xYLrmyup1wEnM7KbUtviwF5ULwieDJ4asF3uljPRapipo+WTaxoDBPHFMxu3OCnixKmHoNcfgSmEcxrkXkw1L6CrVO2IYf/ZAhIVMRigtnq09jd2CKL9FmnbemKDMunMIVcoYDC5daS13qx/r79m375G/+Z6dPp7963p7/9rvynTc2HXk7X84A8c9YkZO1etd2hbQ1va+YGendTTrOAp844uIHDpn33NhUHN5Y3nVTfuefx7Hy9UlEPDBOme7wY0XeEwqPxULJUCfhsRoa54vf64ppIROxsCNia50iy8A7Krl5HOhXIXcBVEQ2EEq6NikbClrgGlT0OGphc6CzsDpdV0OLkuzOsGfY07fP8vM6hpEMKn9zkeuEZzR8nu9hP9Yk/Oavf+O//ptfMwvDDxaR+XNmKxO2W+sZHKqmucPyirAo3vNgmaXxs9Ha4wrFpu4c8yHzYNw103u7QGmy+x7K6wc2xpzp5Hcdy2HNf69YfZg87rovTqyo7E86IN6/a/HpwecQAiIeH9zhGXedzOTBM83TsGNfO3ZYOq7bnkALKPrH45FIUu+wwOprhrtc73emjS+JCn+IoYXUUEjmT2zicissraKe8uNxELtuPuIPyMKypGpdUwin/X2HN3e3XPl0jcd5/vzmbevCve7Wm4aBkhojFC9rRX3KSWe10C8uGchUqtfTivWcU4qn5Uc3JxzOsrmekwmbsUlnMUXWYtZdvPcYZlPCSinB3gr+7DzJzEyujg35kPnkusqHr9OdRsczS701b6PwTcUvjCvdYLSmJ/2elVc6pb7V//Dyzcufr6f1d1p0f1jTOe7NRv0dvGzOWgmn/GP6AkGbM1a+gLt1XeCjuFc86Lndpn123x3W7TzcJHo5eIiw9vuJiiMgrIP2ffqXjnPAg2iVN9Y8ifROtu+2XCLfwzwKSgOpBHcQu7IXBe4u3I1sKNxJaaFGD5aUF9mCfTWyNxpDwa45aXjPdrfCxk4TP0Dzvpp6pfubFZmZVO1BF/JFa/afuqrqReSxaMzPa50vlHZr8+HjyYvX4R8Vez4/vAXGbhsOjx22H2uAKUP83sJkFv3wM73HtOJ6WFdh6CO6GeK9rfujLPX+/TtAjrOglZM2JOrJ7J0lYxfbN7dHieqAoCSN7ks0er+jjcQDk5FcIdxLgGbCgjJEiikyxFjt9bz5MFnkF3Ievqw8fo8fz8mV1ufDLuNrtaG1wrLBsUwFwtR1U+iO8MESMgR2O/Zb11yQsUZyuCYNVR1uBWXJz08vFtubt9bQbgZr5mYK3a9+3RqaQ0AVNbOI8ahekdbtFMg5NSqepoiLwxezRjeDwUJmb8F9gfvILqiHpgM+/IW6ICiy6IKUPuJS8d7r+dKbrOzTUIc+hXk5x1AGlzuY7v55G9MK4QptBoPR9h27Zl66TqJNFpSmVHsqT6cqtQEgd/7q/P35P9Zf1b9Nrbj/hIbiXTZWimZr94wWSjVagWGlsCT78pQTcQRM0Ws2ZMLuZH0IlQsP+/eSDeGwiu+OE1NT+B5DbEwQY8I5rM1HY+eHF974uI846YGLMM8EH0asOdKTdE0fqhANZtkjzUVaAODiImwu1IgwE/MoOEHzdXRm1m7kbsINRKO5glAjN5Aq5s2ESY5Bc/ouhmbCm5g3rbI9rKnsS1PGTykYXyoUP1A8ooB8+M8f3ld7C7vHbfeGLZRh8/5M8Dyout3CJN5fCS6DnRHZII+YSPf70bl7ewBa33nx2QjxvhDcbTXfX/LTpw3EkIEczlfHFOL0VFAnMzB9r7wrzHPFRzkuSBc4dcAXx/rjcN29W92Oa9R6fkEk4KaIk1G4R/EII967ItK7jVQhW08ynHCmx7XVF3OxOVYC9Jl11Nc+E9hsBmupSrfMrKiFZUmX3nIMbkRBWXPd1Dt+SforkuK69IZEobWhfWswV1draHtOI6k+cuyyb7vv1rxZuvKu08857Nsd3szNoY14u5YB8Del3FqBqhx+L4cHvnzmkkugCHA6OYr4hH/cgeqzVXsUj4z8AuGF7ueloZa7g3uiE/fn0SanA0yeVzZNQupwMZjkOgp2/KcATKkuRd6en59/i+/x3znc2tq+adJgbnW6fvhT3AqG0wLvmFAjEIpC0hj3Ob3mx2o6A9SpcCwZuiaE18Qs5xTD2f2imy3S58bz4d5+MF97mAbHSnoK9PrB/Hc/vkvgncSwYYdnIRFKGtX1oLGwi3ORWP+HTZtY4Z5WRdWFJmQxUgl3C93doAFDsKdryu7ABnILo1bfo8BATbjTfddadtwbJP7sKNovFZG5aMxf651C4kBMEHjnQRQ3D+ixCAAsjHlgzayQHldZ6Vxz39ljK4eNe/phFQBL0hHnVdVwxyQ/AynnTPS+vuoWB6nD9oc11Od2o/zCvXHwwH0Aa5xi1JMl0tPqeqauwKHOvoZNnT04ytEoJunL9Dm/fBQTy7NGp2lv+OiQjJdYX2k6A8wYCxngXCL9nEfXRwGhf4ZDPbzfrS6yQGkYOdK6X1W+PXyy7p0f4iEqKMuK9SKUNQHs6dE5unKni3lYtgukkEMfYuKyGe0CBzZuoVinlFXWtXqtDn8j6DfcrptvraKu1euJIBuaNrTWEIrsghJpcmgi++vK603c3aWZ+Pe3oNdidpVnugR3epRwnJ6luD+fG+sQ09eRUjjhIYebsZTCUiMBzIkqjmVpSCNFv7vUMDJAemb6xK6Lv6NBoaZQaOQVLclCo8O1oMAYCY2Nre3cbZe9tbV9KrV8cnfb1/3Vkoz2M7Qg88pNunVcxJkxrI8iaC6MWNULiJVkdfeVQqGzZKRrEDIYRI1YRaLEtNANV0f2uSQOwndcKDCvpd8hIPu9dVJYDGF2n7hvwFIrmDgsuwyspwlGdxZ6UoYYfcRLESpJ3izi4SpIM6FQjispmkGWJhJibbLRISY0DxGgAt7o2I280XFzYnPiRrA5uRHeirnua2kP+Ib/axSPH5tYvvC1vT5cLINlQhn7dTi8iMhC4YoImVrd/YXgxd3PsEwmDGPFM4jF3Tv1M1w2icesDvRd/jsrFbmzN3FYmgn2ZOIRCnVYpnwmQ/3ssnpkYI1iEYyHTsXtm4Ue3xGS66FIz/V1X3N1unoIRCQnCJ8KUGf49APGplNrxoxaigBb2EFjz9djfUihUWjJvBoWWVMxHiwsHl45+ExF/A72cUcHTmZR7tf/X/LebUeyJMsOW2ub2TkeEZlZl+mp7hmREkhRgJoSJAiQfkC/ohc980PmD+Zz9CZAgB40ICByQHGG01Nd1VOZEeHu55jZXnows+PHPSMysygC3dMKIBCRnnHxcD9u+7Ju/rKtTFtLgWhphEz3Cem+TyDcdda6UVWXYQFvtNjNBinIjKaoOItySQwMsaLOEXEuLKvLQeNT8dZ5d9puIRhEqaJ678q9oGeZJAffhRV3qRWICvJdPLFe9ukXV1zDbjpGY32x/UkpiiF0gR/3YVNX2R6NA0Engw8mmFkAQjRdXHi7ew6as8FFW7GtNIfJYo/uLRnZK6o7nQBiRLSI6NrJeCpqPeN8Hnb4HX/S8P26EJRepXW/3ntxywHBrvELsBZxDSCSbBTvVmCCy6dOCoGE2D9a13sZxMDm4nDx4PsI+xjW8CA/Kmr7Lu6yctqawWtr95emDdtpP8jrCaaqp/GAzLIL37NbrgskQrBaCYFmbmQgA4xuRlajdx9Sqh2pncUJdsxjF/vQmrfmn6WVjrO5Fjeu5qpWvSx3qb6Eb/ynKhz/MW/xhdu83y4LJkkhxCAOS54WFnXXJ48DHHcwHCBM8DZtdDZK2n2+nz5u2VBXTzWvD7q0Y2jhNp6Wm8r94tHO205EV63LS8Ay2b1vbkB3ao+BYFtrVe0TDcdQ0TMHOld3MCl8j0X0RMNBXd6IB339VNGM2DLB3HjmrGzMrNp/pm/toFnth5xGfAguNvl+89h+CjRXD2pi9y3qJILt0N8A4J1Woo5s74AQumDvMIrB7mAeWg9twsBLvrftC82w7HB4HTFeu+IigpxsyslTAgE3r+7uLpfBNCaQFes6PLFaKnVfuk4b6YDUdJU4aDDbZ5jfgN3taxqd1vYFY8v92LsfUD3kp5AayYbensq9fXvDhQaLa6ND45KJM7AP95ZVxs5q2092wTqre5AYAkKULs/bJyxs8AnN0PU3D8PPTi0nWyY7Li7Cg/ljJIvDU1+5Nt3YaEM3gHtEW+kqAx1XoXK6snXnp5Xy2Gf9ADsTxl0gyC2pZbfY3uV4Ds0I1VdMGpsBsTVvLREQgrGob7Y8wNlyPgqN1WkNW2kiQSdNtf08V2NySURhIyiVJhBsgkUK1QMLvGk+8hQyEDZm1e+zYHyugLRTKNjoWWjBeiwbYx9P2xTScI8JhhmOGUASNQGIFNv6ii3ro7v82o0h2yWL/CV9B3fLoOuoWtvj5rxhPN10FLevlJcYWdL1RHL7tdQIiNIle1xU6ShdTzHZphL0SaTu7ER4ZSNxIQ5se+3O6Ki7yWOIlHL3KSuDntunixFfarDtxevgZonvX8C0GoXN+gG1P6is6z2GctsAsKIOcHvtB3sgG5bRD7awC3W6BC1JuYPtWz5FX9m0XGp5qahr86rDMCksRSXvsQFuRLnNf6q2UcfzmefjiaezwzUMFLnx1XrmRlsvCTBZY5mNSHnfIkmvf9ewteFFJzIU0jTHxdC34zi1q9HLjh4NU7Oe7+8xIqZhOY8tsbLpVvYTq8kYGWN7kqu5LpTj3TrRHQ5rXlnWTkjuxWIg6IHhNT+sz/mC7XFS323+DA4jWC7LgbEW7kWlHYyx/96Iy4SgV+HKjzM/rok32PuQXlmbXHiZOzEVt3UFeaHsb9uHvfvDxc+rH+gt24O50XWRmykis8gssrpxhVmmMdNa02cNGFfThdC7EHEF2loK4OKGI4XzuB1qOhMRZ5FnSmtJYeg5tsnjD6l4XNF4b0CzFgdqNA5Xnsb7Hiun0PGNBCF07CP0VDp2fUcPqOiG9pcXWr3Zrfq2mbzUhL1vlN2MLNuVisvIOl5KuqL6aROeUK+osLXXK/HaS2SMsjdTywWr0TZY15v5RjscB/1iHC+Nunuca19p5Z5altHM2DLJwqZiLf22AqJ2uxl1r6i6TTjcDj0fBQYfW+K/aF+x0yZwFISbSWKsWFqEqrwG9kx0eM3Kx6j4lJjmHgmbdt/v3W12S+vbkgMbL6ZNHvJhgFiKyrJgOReVZddtD4fazfers5IKCFuxLhl5XbAsgjRhmroKfUwN6pYm1nUiKSCEHpRlvB5gdatMv1Wg94/l1la9opbMnDNyqai1mTORI+++34eQkFJQiIFhcwueNM0GSyMPpN/v2CN7o8NrXy/eAsG1OwmsPYqgbGTBi7UMA4I6geElBhY/a2vCK7GwNmZiYyV16yiSYNYlUbDbl1w1TLpgaLpMBLrZql4bOeJGFLyNgdfEhM2KZGsEpEtw0M0KwnfsRu+vxbENaAaFZCaQ++ddh8GzyOzEak0L0ps9rDBUodF6yebI64aV7Xub8I84Uc2CpIsCVxAZUvZge1qu4+dl+vxBrLDG/ldtE93M2jtoO4yg6jisdJ1DjpsJYwtp6uFAJK4ON+Die8+dEp2dmXE1kvJ6NWL2cYuyTRg2+E+3Wo/dfOxXHY32EQN7TjhxPc3sWSF1d6GH3eqoNm47953zVfHY6HfbfqP55ZCd1tetoYlWSPpqC30qcTMrA3zfFY3bWEu+ciDcWoqw02o3bknHMszhHKwokl5VS08RXAB4Vl5H3nhETDPnw8TprgPqaWhJRiFQy2Okww3NbG+EUpWisq5aTyednrOau+4IjQKAVevi8rWq5orqBeW8Yn0GwJXrceFycvjaD2lNmkKnJ1u/fyEppQnTnJQ2dtg+U2OzNSG44234rfX7Tgy4p/O2yUcWExKdHly+Z2wNMoILyt0tWH1iYkZOCSmN6OCb1eEGRdglJ21bg1bWEhA8qBWJyjq6V3U2nCekSnC9uT5+7lvoL8BhZRK7aDheJnrZbp06gPHcablVQiXgEiqE0ExBhy5nh1XoahUwkhKuRcG7R0Y7EkuPgt6xs9gp2hf2Yv+pm8VHJ5+09XFXnoNYZd2ssAHbWezFglzQbUxIZiezmeWuEWl6D6LCbFEXAcr4DOCki5X6JgIUuPepuo2a1T+WArKfRKrUgVDJoXawQVghrM3ziUufOGq3vuiuuS37eVO9cgNq9cpB16Jh2Qj7uFiSaGQHNjJUswHpIjzbTSPYzdD7OnGlAdlxxa9m5su+9HpBOnYJvmt6bg5m4tbnqVnl1V1E75hCxmOh/v+1T2AD51h7sRgg+jYWD2rv7t91Kxp9V0veZLp/ek2hjzlqVyK5sSpSRs4LllNVLWNfP1ZQFbX2IpIBYMI0T5rmAw/3E6Y7g5m8daMDON9PFFW1urwWlVxQ1sWX86p16ZRUDpwFgBYt54ycq2qtqOXM87HbrPOM87OgNSBoxhwmTUxIW/HpKyQGBAYFi4ih53TYbpW34T7aBVnsmiXsppFXSX+8rErQV3S+89u6TDAUetzvWlCKw3NB8d2UdgXyj/vGloS4F+8OXKo6PBOsPZZh62C7taUHBK+oX2LrzhsSxsB8u4lowzsG9rIJ2bi5M2zWJ51tNUDyyG0y2Ww2jNjprS4C2wESDWeSy8pKO4F5B0OtV/6R6TNWWc1GSM2a8rI+29bH7TbfbvEAACAASURBVLXZomjbpNFptGPiEFYazgLPJBe0NVMBcRZUSBYFLp3F2JIG2wRTxSYWBLCqOSK/5JKbb1Tk9UZN/nsHy39WAamlmgWDu8uCUd6KB4AMYhG1QDh3E0VCzTdJe1CsXT3TDXDOj/Qm7cXAi06jB0mrI8NS6LGuzeJDg3q6LTC1Ewdqp1rde1RtmeS2Q9eu2nHyI47r7gdpRAveAHFhRwDYAPeheRgvuJ2GA5umA5tIsPRVVKF1+m4vEv1j+/62Yx2rrKELKX2tuIH1u9/DFwgDrxaUcXj2w7xU1pKRQxflnftaKHbBYNhbcnQtAgUpK2dRcHdl5Nytv52itZCXsHXl1WvtYkQvKqWqlqrqBL3rRNDZXi5IC5ZcULYdeUWtJ5yObSwrpRk1hRAUBkDtAJq0q7NcOi02uzz2bJOwS9DTxu7/mGGFm8An7XQ+Q0nOMT0MbGNP4QYwcvi0Jw1k5HNFLeCLLgKbB0NnVpVRuDu+VDreonH7ynUd+p1tauksmFdWIvyE4BQffeTOm24UDPZo9saBLSCsQUsMAiOgAiI3Gi8MRGYrIvs0ve05YzNWHGYjPooHdRUSt1X0LSOkHydqSl119fnYQkjYEVj6606gsx34rWnrmGObOnju70cSTwAWASuhVWQmUWFYt2hbsxUNm/TWATO3SYQZlxCnR1y76L5kP/IHXzw+N4GMJ6e6+2pmRUWrBXscGo++x2Z34rTu3LvHIobBV8DrIS+2aYG4eeD4sE5o22sZNxtlOYHG8vCd1cmmStd2unv/PbbfTV0PhNpU6DsUZkcFJDenT2onI9amMN5CsTaOpvUXVO2L71E8iObiue1YyQ6ytfXgwD0q2W4z2r5w1C3trBWN0ve1o+vjjtn1Gl3z9jDY023hcF+w5KOOC524530FoYKSzzqfAkKIjHHGPEfG2NdK64p1WbSsDneqpfEFhZiQJncHxQCHBYRxncjh3gFhbsl1nXV3k9DHAbSDSAnp/h3fISPnXTgUomIZWpMBUAe1FERugfUtnwM93Kzbmmx/+15PupssR5rhEBB6P5j3+MgYUnukcqOzDofhnYiyX57aMCGH1xlzdnqVrlI9r/NaerEpKEthGespFpZaUcekg55QCDSngLADtpseC5zwss0/PiEqvNoU9+u6WZAYDRWxy2ICiMhAqCiQ+7mCQguVbwS/gTU0sZxBtL5hqFep84PKq6tAEo4p5YJZYTd5tCLSIhfQs8U359vaOb+9y6ePyYPt44qGQS4gFpJnEkcQzwLPAPoUwrUD6e60Ykbvp4BfYVPGW4fcE65zOQqubUj0h0TT/dkFJMQQJKELCG1ns1RbRIg2XxZBSdK5ZXIM23JgFyw13ayq9i9OvzrMmnAnjcQONoM2sWf7scl5mnq5JfPRugsv9x2GLp3kzeijvRxcFzff3r5s6YPOy4As9SSyHtjhW3BNi5rUWDJ0Ot9GUxyf98dvMKewmzpGfPA6ioHRKo3j3ZvglWM1pY59DPquj/uxA8/1GdbVS2sJ7pTclpXxAR+8aw/yWedjYAOaE1KYOKWDDnd3uHsgqcy8HnU8n3RaMnI2mUXFdNDhMPmk5GlOSqkf5nFMD91Rd3T8uunW9cKayF3uBxxKVf3K4XVL1d5NBNye1isDxKtDkWppggAWh+e9Q2//GUZxFKI4CkG3is8VbZUnXueYUzQTQ5BNJgsULCJOQSEZLbGvzLrAyJqbYLNsF8x39FvfPQYuyg0MVSquqqBqsKbxDhZCz3avO5pv3jUHl1cYXmU3fbGgcA+oD3Fw98EKPZO9hXgZHd7o4DSrkNdOjC8ga28Sa98wuFrhGFBn0323KcR208iV+GoXvnApIqPg9rNDbQIZwLr322oX8HmPos1jdcUOnKMRWDIG+E2eQZxgPMF4bt+HFbTmltsmGJAsIkAzh22YxgnXTrnrbnWV8bJD7h988fiogMz3M8taYNFoZpQUupVJ6MVkAXAnqRWQ5qbJ7tj7NDLU1ZK6xoMzREJ2JVZkpzj2otCBOe8V3HrKXsvrgGRg6GHKJFGtiTLIS0aGtV3vroXrFrqOKwBDO1R9v4fYt3xXwTICZdxyAoaUXQ3V6/5gvDiXsvHFB460Hf67acT6lOEc3qIk+5ZBm1KAjP32EQAbdsSDuCMzYAfqX5Eh8HouyEfFRZBWrF5VVVWxcKmJybQJYiwcdJi+On11qB/qN+FdeL8+rOdnPh+f9HRetBQIvNf9AY4013maNL2dMd+bbNrTcPvnIyd8z4fw/crnSo5wwRK8507sjMA3O5Arx9191kNP91Nf+9SCTXSYM/KamdeKWjtWw0nTFBFTQpr7fVRBycPJd8NM2CeX6mZLiaEgWvZgYgwMKSmlyDQHxMloobuj2Ueaj12F0xYq7qgqHYR0ugplbh4R/M1E2YVJOcSfTg9tdtN+nWx9cxC+sGjssVBsqYCb9wvRlegjnTJ2SWukkSaDy6OZDc/CCphDThhaiqajgIhs2qohA9sXiiEaHo1i24MOLERXdEuMEKnmmCj3tmV1NcNCV88od25+VB2nYNNhWLcSagVkJbGAXAmso9Fr2wDUIeilITOwCnALzN5e4+O1uDdAfMYlj/x8O338oReKzxaQu3d39OKIU2wHntEk0czimDBoDP0wkdoU4KJqV1BXQWu/oLh7ce9jbAflz3ZFJI7VS4sYbNkhJJ2CgWoRQq04hJaLyX4Xu3y3v7dzZOs0bBSOsBtz9/zwMXcMxjG47UrUA57axTaM1i4hLy12su1Oe7h9nyjaqkmb+K8xqva3NVqubULB7f/MrHapWg/MbeyqXjzGm3UTxfY5OZwD/AtZNS+tJfZAMgrKEP65ydhXSjQYc8148+Obr/j3/B/rV/Wv/c/9//I3/pSV61nnVZKZW3zrb0NSOkyY7pPSPW8GwotnFONOf/Eq22TLFe9rpJvwql5NNPQj7vTco27zbjphp96qouaMnAvLumA5H3k8LViWwtKSEhUsMcWDDtOEKSWkuNNoDCdc7Si9Qlktvn9meF5pazVTY8hlxhIQizGcAy3iKsLWrLUIgy22/3shV3GvpQruClbLmzkrhVqFUhGqaNu6rVuZeEXVbu223woYrl2yf64e5OM1KC8f2YM9mx+URLHCYWh25uo4X5YDbDoxJ7FC28VBXjYHYcuCFsy0eb33cJSuvNKGf/YVluSk9xeqVzYH3TblUAKqgdWb0ry55Fqj6PYi0sBz49LXWJnkwiHyHXbtIZw3qq/x1F201148vNsP1V5ATv39uX/MuLZa/0f7tnfjZa3VQgjo4sHYZCCM3UQxSLqDIwiynkoYqVZU0Ch5GgmGXTtSbzvL0UF3EJn9UI64GN8Mr21ju0DMgMrmniprRmwMLZCc7NGoY8S95C1rBHhox3m8mkJ8rHy24iGJ9NEROeABrC2XkfIL+DY44wBb98EebN+Lxi1m8dLtdWdPUsfX9M/FbafKUSjQbxs2TCPN0b+UZfXaIbELe9o9Vj66dVXUcTjT4afHw+MPD/PD36X36Z+FQ3ifDukxxXQ2GRYt+YwzM/K5sJyr6jkzw2RpNymxGYFVM1je4QQfFZE9RVaQV9Qsyl/ACvYFpFbUXFDWjhfsf2fOyOuZ59OC5ZyZ1wXLeuJpXbDkYR1PklHRZs5p1pwOOKROAU4BIWqvlG5kq9YttwRsuqF2mxUrWDORz+g56XuCudECQBq6HoRdAEkLDjmgWic4GFxTdL07ZKQEGBWDRcisou5XcHsm2B6It6FH+cLmgl+y0tqvbbs2STBUNqPRAENRy3ZfOyJJNqwswMeuqiUStimD2frzGHZiLBsW3F2MbNKW3oZrqm5fx7YVc18/u9iy5AVU702deo65twkkN90VzyBXGY8En0GcSR5BnGh2JHnqTMmFxsKWx5FH5rwkWbC8Y1KNtdVxN3VcWZL8Y50+riaQ04eT0iGpq5tBUDscJJFMkgIMs6RZpgMc5u6NmtcKCSU166g21e/ZBPuLznFRONdeTKzFAiO0hC8EeLONthaS1NzWpOYp0QqLW3tCrI+2vsXhavP+34JiwhX7DwrbBotq42272Pq55T3W1ruaVAZUoVkTeGdRqes4AFQ0f5uyFYPmsln6Ssv7lDH8rrxxxlH3IHmfNnxMIWbmu/XXoAjbzqzR+vTxWmf5WcvuYWb4Qgrfxhga35ct+/Pd829rqB+mMv2X4Sn88u5893flvqwFpcLA4IELl+UJT48EOWvOzVzwornYGRByR6R4afLArijUirp2xpV2APkVW2rkZnQWWN2JIdG79LxiXTNzKSgOgAkpGsxmzMnZQfK2mnJJ5YyzFy9lwbJERBrMgsJwFyYM0hTM/+TtiqoMl21JFdompk5tH/G/2FlxNtuTi7AwhL5qdVowY2CwGCxNFiwFisPyXM6WC19Rg8vN4SNnpKVtiime4tfTMiUcNpX1z3rrayzb67t2tzXnBSF24WQcALpciWYL5AcasgQDada6e2KzLNZk7bfEtqpqZlndFiGaeqKbZNYxkTa5XFLRuxmPBMohl5q3lEO1im5AcbKYUJ3I3rCQ0pilXNXA8QXkCeRjB8yPJJ9ofO6RtQu4AeCroDPFwhYxe2kQL8yqvbZjnxZY8QdmS/KfBEQvuSjNqVo0mZkxNCo+yQghSZr6exQ1Gy1JMrliLyRNLNaFRtpF1F6uxY11VTqAan0CiRRSb38iDcUEI5ECFA0sAZjY1lLF4EQbb8u4oKg2PbQp5BImgyuV8ZViVSOcY6hTbSscu3eyeAuVEdqU4iAbTbBPFOhFYrCrYNhPFrmD3mU3fVzRdjtddzCz6qbruLCtsAPKuZnRf9qW+1Od5PY13Q9LO8yg1+lr3pooLWFZcsxPBx6cR34Xv4///M3bN3e4x29ijI+V1Snameej0ZCV16g4dbxgWJt07gHxKbbYftKorHXFuq5Y1+6BxYQ0RcQU1A7e2+/xnnXUC0lbsYAhIU0mCzsbdgxHYkEOtlWYIFQ2unFhKavWsmqtABjY6MIJKVA0RpZKq93f24aIsYkhG6Z1US5c3U+/aGNQK7DkTiDq60kGMCRZisBkPfWxPx9D/1ENLS8yKtLpDkMmKWTcTx+m/+ru4e7fhCn8gPDFq5Pb58Vfwti6c4WBjZbVTS99g3MMVU6BSjRWqk/Zbfqo1v5+J+SGFu1IIFjjgLfi4Qibt7sGK0s7zpw6A4vunebuRK1CdaAGITtRXKi1pQdmB7OTK9GKh5MnNKX4s4Bnko+NfaUTHEcaz4IWime1fPczHMWSrYIWgm7BVnwcMb32grHXe/yjLx63BUT5nJUO6XL1tH28bRRAYwuOISdJSVQSNct9AhDkiAJibx4C+kWFzZ55HNhbyP1YYXmX3JauICXbGozmzY0uCE7IrKmSPEjGJlKq7PYKbUEt76ln0p6Rq4+i1+SbsFFSWz64A+5CbdMHHbj49ve+Sw5WWps8RuAQDLmrWn1XFMrYh3YsY91CufqUMYD0m7UVNgsZ67oS7pyL2bWNvNJ94HM4wmtTSD88rQsE9+K1a6lv/3hO5/wP3/7Dv57X+U/n4/wv8BP+WXpMf/7u8O639/H+2ZMfIdDf+Y/lrpxJNp2DNeygW3wM8HkfdXxDYxgDF2hsFhwFZV1sOa1Yc/AQDzrUiGhd04Hb3f8G/n6EfV0MB4e9SESMUTFuJpi9iFTUsnI9H+349EEfno865p6/zglT6tNQW+sGNNpyC7Vkv080XRTxXUxpu1TCvVGlOzz0uN1h8y5BpaJuiaCFZaz0amZeM/KYqnJhKZER5U35jd7or/kT/xtWzmlJB4qDBfQ5hTNfWlf1iQM7l4mRVDicJIxN89Aovc07L9CYJZtBTzC6OWVUBVB7Dm4h5aFZFLhJybpHbdgFq1trTmEA7RJXPRBXryaFlh9em+emiptld+RK5QrkICxVLLXlii8CTpQWgUe0IvK0vatjF8SpiwrLhmMIhYGnHZOq7CjS2q2qbnM7/iiKx6s6EBo1ViebUyy24I5xoQR6szUQzWTqZ/yGg4TLgnTrXrSxLHnJJMYWHK9AIDbqHjOlwKb0QiAqgRTaCMsAFhsjTisk1sWCDfXtbae4d+XtaPB20TW3U4Fe2/KtEqitK4LXFjlZdxiGY4j2eiHw/n/qt/WvLTDsJ4nStR61P6YXvKOBbRr/7l3cULHvBYfby7kfqnYLgH9mhfXqKqtrFhha0+dt3RfGvl64tlRAtaofv/rx70II/9uf/PAnH+bT/E+t2l34Kfw6IEBBJzqTP/nf614/MrAg4SxTtUaB8M36rhWKwMxDd3MeUq/Y2T40M9LoBgt34e40fTP92w93H37r9GaJqMCEFCNi4sUzfacvu6aQ7zp/9BS/kJTm5OkurOGBanTUPhnAzXMJ5TkxvSc4Ge0xMy8y1cmmeMAhBYVQUaUqErSAMPQwYdixdOIAO4wVrDm7DR8uOLswELXsmFrbc9K/V3114hl5OfN8OvF0OuPcigdKIYk7u0ualBBwhCMRjDHHOXgYrKCXUgn5BROJ7TuP7tM1VohBUGj25QrbNe2IMFaTXGJtKa2NMUmiGglzTSNs3dQbRsFNQvCGh5g04txoFyWWg/1BIpQqXER1sVZTFrlWaHVDtspzMCwOrSTPVn0twU50PHvgSdKzpBPMniB8kLQAeKbxJOkER4Yhy7VhHr1YZgg1pLC3H7mdQgYt1/FH9BYf/+JRI5Vwvp/h7ogpXvq1oTEwroJm62Ngxx4GnbU2n5vmjdVpsRnassQvCUxDxMPNX79uB7vZyj5ZdKJRDB08JxACUHtcmYJgQR0m8EYnpppbv7BTEeoiPG+srhFb2oqL1EbtANbacJBagOq9ayBQIBQRbo0v3g3XWtEw0ptxGhy00iiKvHhcXdhWZVhcdxBuFJe6SxLcB0tpp/UYa8CrQKcdK+xzU4c+PY5IgSEkpMG4gvU6XFTK7eEiCGtYyw/vfvhNmcrpq+ev/v1c5q/Skr62bA/2bL9CxcEe7Z/gGb8SVRFx7o8Lrqwz23NlrLy/MtT0zVsJHfvxcSjd4555zh8e+XgqLCUjr0EhdhA6UNy1DVeCv0Hz3SxL+sGXktJUnsq75afll+267UB9swx0BKxy5TvcncMhfF8O5Se90ft5mjGFKYnyyloEharqojxoM2yMu+IxppG9XYm6WDBW1LVb6eedEr95emnDfLyw5EEIeOLT8zOezyvX4nCfOIWJk2RaMeMfEPFBLpPp1FykrxuCTzQaH6niryi9YzVMXIwTidKNVauosbpNEiuMxcQV0CE4vf9Fa1IFiBpd1QQEYTJBob06LUgwCaH21zhUKWz7x34nmxKccFfHNYRSqDXIFknHajxX8VzFk8HPbjwa/JhhjyacPeBJxMnljw6+38BvRyG40LhSrArKXt3TnFaSRS5Pl6wO4OX8EfyxTB1XBeTXf/lrfvj+AwFgeV4w3TXtn0WTBXMIWVB7AB0HCWfTwJ9bWlQn67Q0UakpaoVAKWygNXmhO4JZF1ptcbv4hnPknTmiScFIRPg9gRBcUxAQpWwSg+B0t5Y4LaP6CN2FjNdRIA2k33mdyNUQGweKBDdrO1OI2YHqQq7NQM11sXeuaEExPQOZDmNLFWuTlHrBGFQ+300XtQPnY4XlHWh37mjAYzU1po9NgDiKx8erK3yGnvlSQbEde4kAGBFDFw2iqvqKte5CiK4wlYKCE0/F7/z9cT6e7nA3zZrnlNP9/GH+Lh7jN1ZtZuWBlcmKvdlnwfESRkyZVp/8p81sknAFnUVVozEozOmcfqmjfgEiWrYHAKmwPGXmYegZKYYJ0+iAfdNFdMrtWAtltE4dgCKjHXS4wzO+wvf4rh7rt4OmvXvxs2N8BKCU0n+WUnrmO/4mpqjp7fTMOz6vXM+rrUthWYsKKmpNSluWRhNi0wKDRcWAS/7FJZkSjNbg4jGpbHkl1ixC1Y06R5bIUKFvkcODVECj4wH/gBm/xTP+qVVL/XF/LT/7pRTLjyaTXkRucTajcYEjiDKK2zQCgwEW6eorLDsb9WDkQvmdAQqugwk5SjW47sxV6arR5VGazZUoKLjcgCgpdIeJRr65iAYbHZdanVyT4Vjlp+pc3PBcDUd3navsqVLnHO0D3Z9ywNEY3kNaPPAo2rOk3P3plhGxQNItWNODBBYLppBCvZk28I+dXfWzVljvvnunUUSu6C9ClZQt2AnVI4Dnjk+Qjdnp5iqsfg9Xgquaa4KQoZ55LMVWPBpLyo0OStW4DCWoCXJjtQHgSjQhGBBDKxSruVIQ0lRVzXUw11OoejDHaupGqD2+RdtyROouuQah7qxN2T1y1IJiOl9czGy/K7ux1ubRXyisFErhZrjm3d9GNKskqqwxuV6wHfGrgnKZQvZFwwc7rXfbV2ueq0nj5eLxHzOBaLfS8aJSjbbRngqKF5V6Y6lx9bN6Ap6qVV+5LgHhZME+xCn+EDwkOkPI4RBKmOIa781teIfhatVkKjXVk0xOZwgIqLFmGCoMusf9/NXjV/9F+D78tzrra0ctRbksOufVm4PKnaf74HfTJLsjGAR4gVfQS0FeCkouzGXVuhx5PBfkTDPMNicTUnpKb3XUVwAK3uJv/OC/q6ylyUtAVk5c+dbO9q0oZ2XE7/DPSyn3uMdjvI+PTHyK7+LfrtP6u6oqh9fMXAyWDWaR0UxmkTGJYmdxbcW/Z7mHPhnFwSCrqGxg4eZO7hU1CkoB4eFOdyI5zZqrw2tEZFScSM46qCDiRHGm8w3FuWMgt9fB51wMXppS2BXpw7GwFa2ORFqw4tVjv6arNd1FEmB9izAHIKemKctRugsOxRbnVKNLwUVzMarRfIMg854PcVGxo1sbVRBVUC7GLGiVc3VqlfGpOM8iHnOwo3s9VuMTgcdIPgXHWcIHb1YmpyXxiWDpmIeHGIo19zRZMIYYLMQQLNog6dRdMXUA+PVf/hp/7EVkw0DeffdOx/dHLc8LrdX20rArZa/eOnwXTYI5RPditRUQuFdzzayqlDJdE5rlCSh0HSDcjbUpQ5idUAm2ksgl2AqXZMwdkENokwRi1RSrTrFqCtUfYnUPrnOo/ja4CMmD457qq7PRMY8BqWURVAKBI52jUXFrlzu6kzVRuTSALXvAuTqyASubkGij37noRc162UE3onj/bdZERujFA3tdB7DlnY/pYqynRi7I8GrxDeu4Lhw7GOpV5tWXTh9XK4oOTsPltVu6o6KOsbJ+aqXRzQC9qNBgdetEe1IEY7MFafvqdudTSdP9+f5dULD1fn2ssWYACCWkucyHqU6HUMNUUXNlzcd0PE/vpt/cP93/kkd8XZYT6ocPAfowpVI1Zzzc5fndnadvDvS3RoutKOalKC/Q+Swtx4rFwMWF56JQhcPsYXoXI+9nP5cZMqtv6r99+tXT//7+/v1vV6zZ5U4S5mZpTfd3x7tvo+J8OB/+5PD+8F9TvK/H+lU91q9BuD3a13OcH2ONLLE857v82zKVZy8ec8yLDjrFGOsBhxoYLDCEG7ddDaHizr16v7ocvl3V4RYRp4MODxFxGuFdBsOkKRosoSICCKIyAKMz9qZqH1H8UvG4dcy+Wpd25tWmAdnWktrWjiOQDu49RdyQrLE0gwElAqsJhyh4dM2httzv9u6H4O3f5pK5GKTVhBRammFz/FYf01p1zZ2WW6Mjgzg5lZ08u2uNxkcnjyY/O/Hs5HOQntZgjxDXEvDsRJHxZMGqmYFGdmeOYNG8BzGTpFmwsHtsfKfxKP9/KSJXIHpZSoMPqsuCVXfPFgwsFSBpLrDKY3WFNnm4VX8ILtEFqw7zDoK0ayuxVfC2K2rdfgGYPbAoK5eAMpmWalwr0VZDoEyK0aUgpZT9PkgpFT/F4u9C9XdBoLkzOGgN92i/4YK7TDs6b+hPamcBaGSWu7edba3EOglrMRwrsJqhADi3TACdnVgDPIvmASguLkZ4VYunNLLsbKIvBIT2Eq3bSgpQV5KP4rERFzZGErdlD18Qbd0yZF7zN9ILn99+v++nCYezM324s3Z/7WDZfm5PLkTd3GdwMZbktSuwVQtvn97+4lff/+p/Ch7uPnz34f98+pOnvxUkk6VDPdw/lId3UXEqtayneHoUtRaW4qrFiojjifb3P82H8vQQjjm9K/j6kPnthPJttMNDYIwud6qs8OXsfjrKz0k6Hz0W3nGxOrHwW6v39zgcKr/TSd84dT6/Of/77x++/5v34f3jirWMrA6CDCn8lO7S9xExvF3fvvt2/vZ3b9Y3v5rK9K2e9UtVpfpY/wzCnwcFM7M1pfTowZ+Z+eDmS7krvykP5bfndF7qfX2vSUs/hzaMZDC0NjacBsyAAcYPHw8LCNMBh+BqFi2Dih0UzGhAAhR1bm0Kv4olvqW4dOuXl57Pl/b3/tK0MlTXGyVbHAG2kmuEhsHMusGhrQYlwRmCFXNYMDGQwSCLwBTbGiuaUILA4JiSI9MRrGWHmEnWDRY3GzvTZRLpgkGp0UdrBWptS9PghJvkTtbGljFEM0M05CmaR4tlCvN8PxmN1YINtqRopJnp4hewvYbKjeYj7NTm9Y+5iMTxh/36L3/Nd9+902//+rcqS1GcIyXVh4aGh0Pzt6xprR5cNZXqJngsXs31wNYlyNqkkhq9Vt60IZuCexWhaiwOrDVwIXguxlKNZxlKtZYH7gYFR5pLvaNjnaqmWH2N1S25wDbGRuvYRzuaFZy9hR74S2v/K7egp80uxdUxDYdKJFcnzgSWKB3deQrGU+4e/hSXHG2FqRSxBKnWNoEsw/Zkt7LykXu+2ZG0qSTQ2AkHF2XMjmHFG7YbB50aFy+x/dUb8Jrl9qdve9H25KZo6DMFSZ/Rm1ytycb3mVt49/zuu/vj/b8wt5mP/BC/iR+yckHFdKiH+0M9vI2Kc2FZSKLmemLoLhdG1TmW47fTwMOBywAAIABJREFU8zHH0z0ZSo4ZeOOwrzzw3ozBDKI8G7VAnkrxcD6Znt4/8B/OE882Tbq//zpZ+PYev334Rmf70/rO//rx3eP/82RP5wXLCDnCWB1V1lpCadb0pqd4iN/Xd/UfvgpfvTmcD99p0Z3OulfRrEUPWHFPMHDhL1ExmcziGr/zo//k5sf8kP/D8y+e//Xz/fMHNx8GiLwC3LHZsKMzs/ZeYuKe29BYUKMBMKfT6cFoRjGJkpsHABNetnXXS9PGCxPJ1ec9N2gUkU6T6gmF3vJDSAqx1ZE+MpAGGKkIIBhLBEokipE1Qt7YlhqGeC2QF7AAGCWZ+kr6+soLJuT+Ig8uGvsI7CALEN0s0Dgj2hqDzZrCimAIcyyIVuY5me6m/etPjc1gtwmffkPfXbHPQtm57P6xFpFtAtkVkvrjv//RylIQ51i1VKZoJ+Z6mHMNUTiF6ohVdsg1mLDG4lOQ5vaM9Wm7dQth9zsqmr/NKmIVaZUIbfGO2otIkfFc2S2WgWUu7lNt5o2peIquY3RFShNbcYoiEoUDpSJuSvIqIICqjQXcg2vUmBrdrqQ2RSmzU1nUMTqP1fjk1LkYjxZ4JHAiLMO0sKoQygpce1762n+2q1sZAKgWGljeonJb3oQ1584Rz4BuUcJeWLBTZA92y+jydnnwV1TK8bXhhdteKyD7f9snisTnMBS+UlD2Kza/vQ+irIZ6dvMjDIUzTwccpqSUaq0xKNBkFhQiQXn1O7JJz1CREFjKISzL12l55nTKb1Viead7fD3f40/vhYdJLVIXRFmIdSn4cDrhp8efDD/+dHh+XFNc7/kw3YU3MSxvZzHdKXjx4OclLeeMrJ1Vyf7vkaNRh+en+Zu3P779l/7Wf3j+0+cfwzdhRYWhICFjCmt4wIJ7OEJd6p2O+gYOU9KRK+/N7e7w0+G/A6DwLvzt8e3x75/mpw8VtVbVberpwVcXpT13gVX9vo289TGZGI0TJxGMTicDXaZC571Ve0Cz1aifeI4/B6zr5hAdJqGbm3DX8HTz/maeR5oYWoi6BUPsJkZeg2KugcForhAIi6CRUAA9umhNPWZDG2Ijwac3jH2V1Wzbm8tJFJgZGL3bMSnQzCxFo9fI1aIdMMWMFO58MsOcKgPdp1BBHHrjx+7OwZvXC14oHguuTWP/KPyufpYO5K/+l7/S23/1dlws5qfs96QJKHfZl6n43VS1BvdkjnNqjAlQsigENHZEBJDYOp2tIqvFRLZUTmBtZoxIuVFiszcNRiytgLAYq7nqwZVbS6U1ud9DLFEqlJwjHnMc4peWzHYsrN73qLbzXL4T+kjtAjiLKJU6y3mqxBKNH9x5Do4nIzIDs0KzQTBhjQA8WKfwMptZ2TCQDqx1axLtAHHtnXZBJJIjU35Is3gzhTiu89nrzeqq7goCb6YVe2Hl9VKn+Vr41Kcy1V/6mXrh9+1QHLibrwpaBFVLtkyYYvGytx53DQxtCBpNtedHBDbXDykGL2b5rHBaFI5n4X2ShSCb2HJFS4GfF9rTE/XhifV4DjWPBfad39/bB/uFnvULTXo6vTn93TEdT7VFUsRX9TNCmJf5q+k8/Zm7P+SHfD6l0zlanATVHjkr3OGDTAVfQ+7+77oDaMUJD1gx+cnfzaf5V9P3059Py/R/6xf61z/OP/5u4VIFKSGFuU4WLVmnVQ/8Y8swGcZoY0JxOAKDHXBIAcESk/X1qFM8xBLvCc57l+KfIT59abV1O43sPcrUwlLaa6A7nZpDZLAkaYpiDGYHBE2sOihYhDzKzIJ8NuNMb9owI2hQsLZxiACDaYseHRENwcnobR0eCUaSc6Pa855GR2RBsHvFUGm8RzQghEjSFEIxYzazuFtV8ZUNwN6uZBSPsdIKLxScP/4CAgCPf/Hob//VW1uOi//ZsSi60uzIk2Rvs1YnOLtKlJQci4DD8LHqViQHtPdEIA4GFppIsFAw5+bzb2geNQcBWUQwKbcdJWBqZkUGMLmyiGN0he7EWW+7XF2Ae+8rq7ipQTqJqa+xdsVDlY22e07AqVJHEefq9lwNJ8JPzDyZaZXJlZhB0xpbfkcwurf3ZlWiNsJvtN9By2227LY56gLzZueOzdZ9PxnYCxjHa7gHbrpC213kX2qO97mP+sRUg09MKfvT14ZdeX9cmnMFm5veOKH7J9ZNAmsscUbBQaasoKVlDARrdiLBKrysyOcF63NkC5cqKPnM89Mzj09Hnk4L19I1Lzb7PKVj+orv+SstelO+LX/14asPf3OKp6WvrF598ZtbnNf562mdfokVv/QP/lN5W/7W2DcrrkBnUFVQFCrrsaRyRkQxM4W78CyJcYk/2fcG/A7//P539/99mcrp8RePp7Odn2stmKqladX9veJsjGwuwkU9R736cB5WGQVFaEYi8MRQppnOA5W0KuoUSnibcnoH4cebCeS1CVNfQMTQS++7QoLdbU5jAEUPTHImBUueMEX3GYHRxBnGiaZDc7Ngc2dxxLbtopEwG7KozfIGoeOrHKtkkRHGScYs4wHG6oGTjA81GjzwTY0WarSgwFXRAgJcwdauX+ErE/v+bx0TiAGY+7k39/d9aJR+/Ze//jk0+1sh4l7Jvr3/vtdi8Uu+6LvV6ykwPJRGK7yv3d+9lfwYG6gVreUdTwBSP7jvNoU4e16HsAK4o3BUS6CbGiCmZ7X95bM330QHUAxQbbS/2NUkJmKyRo+pXRwY0PMCvHPCcWF/dYxtyw4pu0TbBqy3tVaOgjuh0AC5WoIymy5kEbRKKNlsdRJu9Niqh6rRQ7RhqniBMfrf3ItHQfMUA42hGyK2dVabRmynCwifKBKfOuT5QtHhF6y2+ArTSi/836fCiD71f3rpb+rFg27uTh825BsW0FP8yIX3zHyDgJMnXyKi3eluMph1q3U6vJ55PhlscXhdsCxPfHp65OPjM5/PC5cMAgcd4sPy8G7+Yf5neMSf6UG/ef7m+a8f58fHgnJlKvnSm5tjmZbHEstT8DBXVKfgUJxQPNbiLZVcCnKlVZkrVlXVOhiOIUSmlHQX7nIo4Y7i3XSefjFp+ncBIZuAaeHh4RHv3ro9RIbY9vrmdcukb4mKVbVbxJRaoApCca60r2BMNJlaXooQzG3qr3t+AVPvc9Y4r4Hu2/cM1uCW7kAYYURQZNWkgIDiBwVLqjqIOtA4IzBCmMw5kUrWbFGCQQFkENDSLake0AUHGQUUkVEGybo3cisi7sGqjPLQHUuDmYJR0egxTIqWZNzbj3zugB+H+tof06X/ewFwj3a+HXDjvvuFBcRfYXft89J/7yyvVwvImELGv5OLSdJcVdk43DJBsaXFhOHR33GOYELqZ0bsVv6hTwBTj7FMRCsibUpBVCsmswlPApbQ0e/+g+aeoTz3UdVi8+UJHeUUgGSX0dHgiOJHu8vQlejWf2/pCScmsIa2OqmVLMklAsUda3JVdyxRKplsFJOe3RGModLcrLvkXny+RiIhCE795TiKRSQZaIy9YAy8yF4Yl4kvT47jK2O3febA/5IiwC/8vpf+fTtVbdPGDhxmT/8LTcshEExR8WDV7polBjIifMJ0oBgnTWnWPPXQp9Ade33Fup54Op55XjNyBWAz5jkh2Rt/8/Dmw5t/Gj6E/xwR5/Wb9d89v33+cbU1F5TPTllurvdv3//49fuv/+7d07t/yVUHHZdguSb7abmrSw4qYOsNLIYJDyEV1lRCSSoe6HyYyzmGFff44eHw8Due+a3BUkSMkTGsrK4pQvcH8ZRCxDTtlOvjseuZJE0o2SnVpbBUInjEBGvrvL3w8HOZIMCXZaa/pAt57TZssc7AoL7G3kAayChjJBG7UL9p/4ng1vlPvVhIDB13Z3e/4I5tCRChGeqzNl8+VhCTyOrGKjOHmRRMClaacowVBM2lGpg/gw/dEgkGmWXafe3XuMTYXh34P2P68JuiMTzMhqRg3P57LSKfnEAe/+LR8b/eBQD4OssrEQ3w5E31OTUmRAUakGwtqbB0gLodki3sOPaDuxEqmshwAjGZcOyVekwvE4BENdGiCbmJg9p4qDbppH7BxFZfEATMTeCxHcYX162XD9mLmyjUJpdhykvIXKoGUlisel4tLKpeF9eaqmqZKEZTDG0KUaCaPvjK+HBcXNrhGw0s72+7+7JXJtsrB/6nislrK67XsJAvefu5BQdf8js29mXjz1hQmIKbB5lL7pLLVZuQspmOBGbesfKgWY+YsCakNGmaDjrMBx3uImKKzc4ktLjaZJILnX05ecqVtaYwhYf14ev5af4nXPiVf+v/5vj18T88x+fnrA08f+1v3KaobgZZBS+oDnv/PIX3OsQfnh/icU3e1EEBMSHMcQ4HTnHSuQYVn0I9fV2e/SGuJ9UPcwy/S374BZ0hIk4GC0ZjmaAMq3masvlkEbHhZj3kufl4YcNrHB5GrAWCMdkhJKQkKO4wKH6mIfmSgvG5x+f1NzOjizAGEEHG4I1Ik7zd1l/PjCBCnzCCCBNbFlBfRltXoxp2ASvq0RDd1LWIiE5GEallmGN8XgAcvMui3WhuNLWvvTVFxCfwH/XHP+Jyfo0cEH+BCv05xuL+6/fg/PAwW3bvW4H6fRWRL1phnQI1u/S2qE4uq0SNDWlc0eyX3aCVwKpeHQ1Yoe2AFy+HogTE0J742IvAqfvozH3CSGy4SmYzKqMAc+Jg7WdMneF16D7YsafXBl6Kxyha1p8x7TuvXbCU9XZoxNhu0ghr6lRVaTHzhdVWr3pGlXtLsPY1tMPZGz/8clDrIxaV3RSOl1ZVLxWPn9v1v1Q07JUV1qdWF3phpfUlh8xLh81VAXdrOeR9SiRyjdOxGpal1KUkeCE8NpZarJH3sQUUuUxepLJK57MFxRgxHRJ5l8QprCXS23McUBWJeVJYi83FEWtOyjbNmJ7u/sye7U8x4Sm/yd8/T8+PC5aSkV1Xl8frhbvEUtx8JSwBFtav5mU9hKBDUnl6Zs6ZqrJQQwoVUSkqAFMsmiqt2qPFnMvJKCqfC3yCFbuLOc6BDJYrYcYS3EtkjQqVCGOth50vFi8iQ8kYEJDMzMJkUwweYlUNrzQYX8q0wysrrS9ZcX2Mg3H40rXpPAgRRhloMhOrWuuGoetiazqG668u17T2DwBvnqcWAV3Ris+YfqLIDCJ6yz0PIiIvuaRb74mX9S8vrZnG/UnYMFfsTUh/zsHuN9PHuiseaTfBfVRwfh9F5LMF5H/+YfH/46sUFqMeOrNidpTSLNYLhMWgpbGqsPbJYWI/vHvhOOxovNYP/+b530bZCCBJmAAcrBWQc59sNvAotoLDXnQOarS+ACB1NwXbrEuw+eSEm7HTtgu7FbjzuAg2NsclJMJMKhI8VlUvvqbs6xTrWlfTMmM1ydzVQXvZRs3dF4hmnxtBhP5//goTCp9YYX0Ks7g99Pdgn71wcOgz3edrlE1+wZpDn8A/IKouaXkqsTymc/q6riVycYXfPSY8Pyed8hT9eQ5IM0lqNnl4swJz49LlAjuuISznED2lCemQGA6T0iE8rxNy6QXE3eF3qX2sNSDXh7Tqfo78kP5MRQe90W9Od6cfTjydFi2lTS6f1LVs/+Pm7uad52+xTknr28Opvr0reT1oXTM9V7MqhoJkFo2yEKvF4DYF9wn1LI919VDPCjrb0b47fJh/kd7Zezx7zfNal3nJz3w+ivKoGDdvrD7q7oSHXQ7eTCJN1sLBHREZU18hV4qfwzteXUN9hqn3pU1GCykYOJdgzaAd5oSStiAu276a2mjt0IvXMPfb0KsG7DLlRxGh+2wGEaQrqVvP95z00F+PAR+lP7yomXG8LLT0V4oOvrDpqrhONFzQLOTT7m/3HXj/e6MKf9EE8j+8bzvkvzkET5KbUCdXNmGtTXw39TCo2AtG2IwR+xPLC3A37SaSgZkkAJM15ffSn8DT7sErHSgLHW+568UpdpV5MG2FyHS5H7eAsr8wThpvAqd6+qB392g3F0TVUF2peJmKr8VVA5TVKV0WrOJak3H5+8hROEK/CPYXyLS7GOInQHR+AhzHC2yRlyYa4udPEv9f1lwvxeeGEspZ1IIeA1RmnPHuzmsCPS0ZNco0mwD4pLNCdNSWq60Yq0+2cnVHXp11QVAwKyVyKSavKCilKheXqqM6JCkF191seB++0wf9Enf4cfmT5d8c744/LFiWnl6oLwWSRVU3L6J8Ps+/yMf8Bgd7trtUkOhMgVw9FlVVoQTEONU0W53mWEOCO1ZLVqfFUQ7G5zAxM8UlvbEeacZCeMo1Y60LbK2MHhDsqukefgadc9oylUhRRjLZYoHP/AYVM431FaEofuZB97k11usn5N7elMO57v9l7216JMmyK7Fz7n1m7hH5VV3V3WRzhhpyhhigRUgAgQG0EKClfkH/AWl+QP8WCloJ4EorQdzPUlvNgiOAiyE4JIdkk+zvrqrMjPAPs/fu0eI987Cw9K/IqmZWV7cDicjw8PAwdzd7591zzz2njUuhTUZWUIlGdNoZUNcsUo2H6amHpJJjs0o+ZZhUc6Z2vUwD/w/g4Vf0fPyEgCCuqMSvaaDnidKfbXynaff97Nr+6qqw/vhPQ9//nhGA/uWulJ/2Zl6bWUVUTsKIarKIqFWHt+pj6gJEi3Ra28MuZVo0V9MbYw8LZ2pvWNdApG9vmLVqJE0UV+t7TGWjT6DUzpb5INt8Inry27ATzeZkDx90cUC5mqS0dUOBOoOSPccogEFQtf9jzQSRM8WVzZrk8xNj/q+b8ah2Qkl1qil+qlKxRX/lGgrrqZz4pZ8fk/G6qJ2gAQIoFvRpW77hu3LjrpvbGxvXayhVd1nPAzrtsUfUbYhn9b5FpL2PcC+EhYyhkFsuLMOovBsxDkUlT3Jh6xOl7oXd8Vtw7OOj+IfNi80PNmnzdq/9LjBVEyfVZseUagUCun337e5t9yo+ijtzs46dgUBhMYua9NhF1/VarXv0KzNLxcuolHL0ZSw3vNdbbEEhUtlRQtpkN4gcnF1KKdG6HtWhuh1BC0Kr1oTqrIKkMVr2u4oKSyn00VdTBG4DnnhPwLgk6+VFKmwW7PDQoyRMMVFTkjFYoquVCoXjhp7zgdvm5fgIPJqXKt+l0+aR9JMrhOTQYVNnJ4QBfMJ7gS/wHmtWCXFGhw0AbmZ01nwz+kForKsqkAYiAKBvD5EB8K1zSO2DsIe0v0kSUVojfZ7GlRdovUbNNJ/epNVsh75b/H/ylxmmZnujsYgqGZ7vGBovfOiDaEHdzEs+LngX8iFdrCq2amC4EkAZRwMQbjYmK3WYAdFO0paLDpqZLU6AOLOTKbPqY17BLCfOlzLfU4+bKpCC8/Mkupaz/hIA5vA4URzTiLB4TTGxkITtU5cMxZOyerIbTF0HgMWG0S1niqWFL5XO1zk+0pbPOlq+3VLratiKiBHjLmPYD9jvBgx7KUQae79Zd69vv41sz/RMP9zcbv7ubXr78zvc3S2qj3PS58P3wdButftFSeVzil1hGQjuSXLFVTIzjhylEAWZyy1FSh7uBNGyQzLU5tcdAwAy2YhVl8dXq2xv976+K+ubMqzWsvWKXDnCa6ZJSyQwQski+lTyqzRE780+mBGIghGJI58hkOr0EecKny/r833KgkW2pFI9hMxFm9sKCGKVslR1VP1cjI8X18cL+QwyHm0Ym1dX2/gRddB4bAPI0Xz6Mh/nlpdphuyJVcN7V2W/yrf0nuiYXxQZgNgZLIBdqyDuW4MsJvDgg6lYnsvZZhVHzBbPbr64zxbMcba4egORSdLrXOzM9RgwfPkhTpRVezE+0dpTg7+pOFykhTGFsS9uZeg8jauU1KVOqxSx7jKShVYenny5+0+zRT4dWfh9UR0sTzgteFjhXW8pnlBs8cKu6Frb7ss7yqcCEIHihTnl1wCKjXbT7bset9jQWJhoJQqqJMZM1J7GnSXb0rnjjt9K9/3L+CZe976Wx20Guj1hue4YioAMcRAwQFK4eeq23S0GvooIK6vy481686N73r8ZNOyagSTOUIXvTPOHRdzd3v141+9++Gz77N/YYCnnPMJhnXXJzc3MUFgsItRCpIqokWISNKra5wwgxun9c7jcu5Jf9JvoQY0+sPR74GYgbm569v0UvoPqMedWZJU3TgCo1stpFA8PGzdRY/Gym12L117zfAJgXKxGF51qsmV98AHYahphdbh4aEYfYo4h4hDawHcayqpAhAoUolhQB5iLFymq63cGMFhogLAnMJqUQwdWIK54fbzwfr1vBTJnKsaFEmvb/j/isZw38AEGC68GkFkVMtFCI4BuHQdfnRgni2iisA4MFj0gfNjDB6MFUGDWIEpHqIQ0k8tNgNC3CsJbFXJYqHnkotd8F4xHBXXMFBRWBx6ZxGkNY5/rtGo3rNJqv0plv04ae9fYucsQ2W0+/T33p0qzSmpePeCEQuqcOkZHaCqe6W/wQuMTOB0ghAv3X7vROHob0xh3z+/+6vnu+V/0m/5f4TV+2t10f4+EXY48AhhKLmNEJHTYePKSlCwiVijou6F7FYp/SEglsYMjTXGvltC5I8OR1GOVZMoUO73Vd8a78Tu4xQ+Hl8PfvE1vf7HB5u2AIS9y37kQMxztIYni9mb72W69++Ht9vZf97v+47zJXlZl6/TUedeFh+SKqLPjpbAEgCwoBWMraA+2SWUhSJrTY4VeiV3Z9mPJxjzASifHWA0chubqUf3VYM42QwOnpBIhjZUOIGMdb2xln3HkergZ/ml7s/25TCOeNtT2RSmuh/OyZv1oiphucWb7liaaqGrEWtcUBYRgzQIRq3Jv8rqbrSECxBqEDJUqca5+dxQKpUxxtNAgYptyDOG28RL7nGxjoX3NRucAaZq50AnAuJYGfh8q61ITfYvqY7bH45z1X40KZAYi0+5l2jntAbCrL39ob8T0IUyh8wXAixNIfTs7Hi3UBsBjJZXNKotVe6wvDGrmdBAWTXTj4+aT69B+Yy9g29QaXRj7ksxz5zdjZ7Zfp3G3TtyvvBs7X4UzilF8TM8tK5Bu0ds4BxjnzA+XFJad6ZngzHPqwkJ/NnzqyirknJqnKm4siEAvqmCLT/AW2+62ey3XkC3vwyNMZkwsnXVduknDmMatJMKRA1EGDuNKq9Hh/aSgajkZk4+WiSKDHkM8V9EqVvHzzbPNT3bcDXvtywI8MKv6LlVSMaZxt1lvfvwyvfw07dM37a292L7c/mjVrWzF1bOUEoYy7HO1GkkFZUPRXN4P3G+Hcncf+zJyt8rMGQTRbXO6+XTsX+z2q1UeC5F5Q1/dMPU9okscO0dymrvRQMrM3GAGGco+RpmV0BqDrRJtxTda62e857cbfTVAGA65M+fPu2sAghfOIT7WHsBaI13NEDU3VVZuPYiMCiQFwMgaCVEglWrQ2kIZ63NNoEJB8UDPKTOQDcgy7C0witqLsRNsJ3KTcmyL8T7l2BW3jUUMHhzDPFOH9YoXQMSOXEc6c+5fczsn4920f5PAqHyBftYHobDwx38aAqDvf8+mimBoC9r0YqY3/3n7/mZRjpUFck4fxs0MGMpsgZyOc/4780V0+pA6Pai6Ti2my+aYi5VWailPAtiHASK74tZlt1VONo6dc0xWxt7T0Hufk43FGWHGaFG2ixPLZ43xYz2La+Y6dKLisBlAXprzeEpPQxeoKD7xOY5WJWHBN8/fvHn28bP/9Ortq/+Ob/n74zh+ZDf2mon3fuOfIWEPAJ7dk6XO3VP0sc27/FJQGjjEnvvB6TsIfYt7jcxcqk9UlLrAEha2ihwrEHn08f7O73Y77iSpw3Gp6rE5mnecWIuXeP3q9Y9evX31d6/evvofurvud3Z3u5/tXu52RnM4jB0LxWguu9UIkUDJ+4ztRqsxPG1uett1Vfv9et8/+8XdC7vf9nnYFwBcO9d9snXnWidGMs/G1JlZqtWHaHKUgjJ4DCl7sfxqXfCcxZ+tRxl3qFb68vDCas2jMxXqpfNIF6iqc5VIoAJGtOrAq8t8dX2o96FQCNZkwmgTp9F6jtP/rcVF2HRfdT1CEVgIjAiNBpRKsccWsAGIPQr2InYpcxvOjZfYlsI9EwaTRrFtgqvTxbvO1eSpa3Up4X2qfclTBgmnifT4UPTVewHIAkjG73/P+pkKYNuec+Lnns9+VmbIqlkVM+f8DhXFCa6/LBZQaz2PblGpLBvKcwkvG1VVf786DbNVHUkEw7iWMYexK8lWOdmQO2dOVoqbF7d9MeuB6oklPgJDLvodcwA5V3Vc28jkieb4NRf+pYv71GJwzVDjJWpsJt+E7m/u84+/9eO/zTd5//FnH+9Wb1d/qI3+BYDAGj+D1djVYNjI0QtKUtEKhlxYNGL0gpI33IyB2DTlUWTmccAwGo299emGN2uDWUSYII0c8wab2GvvJ6bOcYIifPdiJ7Rdb+/ePn/7X2+3t7+/vl//vv3QopTy1+VFyckSe/YIC5mZTKbBhkFUNppS6vxG3vfW2yEyyr2wv8ng7d7vYDZG59bB6UqpR2drN3oyuIMuOUOR9yq5KA8DkLeI2KX7sZA+eI9cxDpiLxYGJxokcNm9ACd23qfOy8vncmugNzWvt95EapVHxwoWpX5VRqWhmn2BglX55o3eIh+8N2vKqA5AkgFmk/aItnGltgK2QGwBbGTcROZ9sdhYsq2VGI3IXpSpiKVARQREYkogqZFejMUaNs7opbmFybWy6adamXxQU8X0RZ/gj/80hu9/z+YS1bnyagKRcbaAlxnPN3+jpjdrhQft87xyiCOKo3neyLK3gCPVR7QToYEQq9FiBQ8TsZJxr9o474rXr2FcBcmcbAzjVEmUaHP1osWJ3esSPN7HTuTUQs7F/ZeyP5Y0zaV5kGuCqU4B08VsiWDgvr8f4xvxo7Efh4/7j9/02/47nv2Z7/zbk3eaIBYWBCNsbW+007e11wsWrooXFRRDynxfAAAgAElEQVQMHEKQBgx5w822sBQa8dyerzp0vQZ1GrWCwBxZO+0YiITjGSaXaJ35sGZkz+WzV5/944u7F3/96u2r/+nm9c0nZSjf0jN9jjUGL97flBsLRUSKu7Wvd6IKqGz9q2164UPnK4tt5V/4YhXxETY5p43e3FvaRS/1Im+TawWLRBMoYy4vbzZlZfuscTeW/a6EDQOGTVCDdx369Q2s9xVhpWlaw2Tj7Ho8tjG5RNvwCvC4OPDaAuAkcuppgAdAqFFUEAxSdded3vfWND84S+hhE9rCpXR4LBRSteOswDN3E2oHEzALsRtLmv5+jCWKTxbaPFCa9YnFQ/ZptWFFM2Ass8V9WujnQMIn0FrXmil+cEfe9GU8yR//aZTvf88M82Gd+gJ7AG8XL345wVkWb8qcA+wXOyWbgYW3hvhy+EcnqAdp5gM0szbIYPXgCeNGZB+syqtw64uzC7c+JxaQfRiHqP49dTdCalbSEu+GPJ2yE3kqiNgFHvYplcGxyeFLCqpL1dOl3JClw68Ki7bcDuVZ+en96v7ter/+y/WwfrHerL9pxXqCMJglptR1nXVD9zE2+NhGe5ZyWtOoFVc3SanLzAVADkTssR8TkhcUZWXgHs9tZx8DYFZWRsYiMOpapc27lRWh+9v7tz/51k/+rMvdq9vt7R+mTfq33FLqdIfAmqK73Nz9LlkamhlHwRq/6L7T/U16ljCshqKsnp0lu5ElgFo9oxcixQqOlbz0grAv0i5MJa9tmz32O+T7PbjJ8GFk2gkqnSejpa6TrXToOVf35zOgHzgfE3BOlPHwe5X6efdcqNdLYQRbfk/igyZLIkINRqjwgyC/Gv0fNkycn2uETcMeU5jcNDii5nit5nYh0sXqVSVyANBRGmrzvq5BFvKUA5AFER7VbHF6foRRwYOEs87dVJFdnvV+97Pe7/hEKusUnfWra+d+JYgEALTeyNwOIC+a6nMF1jHwmIBm6p0kPJYcejtJAnWWBItKpDtSqUg87g4r1qHHqP7r61aB9EGOk7laqekdfRj31V4X1pRmnHknndqlLRVnVw/dXaALzqmtHnPO5z2NLkly+YTdOXA6XOroraBoZ7sydMP9Xbrb8pa/8Jf+g+lc6dmnG96kV/Hq1Td+/I0/crgopk7dKiFppdUqIa2SUi4skZBGgrmZHUrVRSDk2gdj2K62n2dm4fwE7zWDk4dzLDzi048+/YWo/+ebn33zn1Zl9bJX/7wf+9+yZJ8x80Z7fTL9liAw2OEe/6Lsyk/8pb/lmp/FZ/EH2uklxVWyrqDrvEtdZ/CO6L2EF4IlEKW9Phbk1gBQ9YKjdWJYmFQ8vJSSWC06qm0+Yu6GcG3liYufvXTJ5aAOyT8E0D6YH+JQfTwMALKtCVNU7ukqUeAjabADnDaYLtBFuowuYxK5alVPfX6CNWtdfcqlhHHnjMKQQCgOR0yWxIAQFkDN/1FNPiXBkMsOzzuX3B4qkb/493/xtUsnTF/2E86AZN703h3Z7SwHC+fVyHQy9Eea06EHSqg0ymuZ0MeDYdsDeOhBCsLZSXwwO/R20prI3Dx0PGrwk4dz1553Sj8sMwY9jqi9eEYh9VT66loQwZGF8RqfolOVhS3ov2U19VR54tHeiCAVFpUapyL4w/PusWdh6frcp1fxqjgcJJGYkC1HVt5JUguBCoPJYOjRe1LypNR59jWENK7Hf7x/dv+zsNAVnP65neGc8gkAaiDy2dvnb/9spVX3Mr988Wr/6pspJUs5rX3j3wiPfVgMgkTRjebxIn7SdR361N8RRIxxMw7jOtYxtPAtdOoAoAyG7TLOtjntrhOSESwUc0EdUgxFKiq90VosoZJMt7PN2bWv/bzF/QwUDuYgPOmDxequyyQyUdGh+lSlqECXRFYpPZhAWo0RqhhTQ9DrOdlOQOOMVlSNU2AzSbRq5Y4sct2OdKvKaU0qAgPkVrQSufcSCVAWCRlDgMKoMAZz7XkWM5DIFowwFEDeQKTIOGWDvFOxf/dPvsuvWy56+mU9cWuy5+9/z+ZU1Hw3nmdflyZ2y53vJO2VHs9UWKtnpyXHW1WhGYjw3ZNYcxCZ4majXSlzw8VJbhjAYRjpYEFCQaoAc0zydy7Y6alKqUsVhL0HEJ3isM8N0jmOu/xeq8K51Gx/B2gCwUHDuNV2N2LcduoMAi2sC4vhXvc7SfeSEIwYOOxpjI6d3/K263f9S231cSAw3ow/29/s76r/0skF8dJ7ubTHOSj7ZMLQD8rIY+7z27ubu92KKzOY8xX/HkS0WRC0wUK4u6206j+6/einN/3NZ9jiW37nv5X7XGMMJC8sXlBCkBzuLk/NEwuqjebqCI0YMzMyMwh6MJJMq2lBE5QE9eABQL7o0NsBPA6VRbvmDkBy4K5aboJkEKYAhD6ME5gYoRQG89J6h5z6Dic2YpO9YrM5elyFVIqsxVUnSh3AgcKKEigWEwqKBATpbX5MMgsrUUU0osDiFUDCGKxhugU0hmG0AIqzNBoL01e8n5nibwDkBJDsv/89W7VKBADu8dhW5PBmTw6+mnlcHeltTCdkNU/EwYH30cJInefkNTutwbo7OtHgD9bCqjwoPWoFJb5jzniOWrrksXQJTC5JJ6+VC55T2JySsfqR3tI1APnU2QItdtgaMXJv+/3m+eYfVnerf/B7/459aj+zzl7nlN8MNow0IhgQFGtb243d+Lqs1/2m/2TYDx+hw125LZ9mz+MU+HWicrtkYe5nAK8hTGDHHUaOeYstAYz02d75UPuSDucKq4IX+JHf+T/2n/b/rX/uv8sbvi035U0zeXpwM4bqAER7qmCwoCAj28ABO+xUUNSxc0EdgF5U7RdSJqprVXtcODd08bM6gEfzs4pHFFVjANpFyHmjXDXKgUx1914rkPp9rRzCSC/t2ufBZtGabUkjtTQ5TzyqCptjtzVgSQS6qMquNVSN6yjJSihoYkCGBiSil1CuaYZUEPLCKG5RnLm4FVQXgAI3K47iRQizguqbU34dgOOfDUBmQLJvkt/NMQ5+OsFQ5zk6PISzTFnDaDMb0+LV4bG9iS8XgaqXOMlfz/ZLj5pwk83J9Kveylk1eksyxiHvQydpmktggicsuKdAZ16hxZHG27FF4dQCYSca5nbi37wiueQUbGfotYvgEojYcbe/f37/45e3L//Rt/679sZ+bz2sn/lz/8Huo92Poo8tHEHQXG7PyrPbft+/0J0+0aDn+kj/efdi9+PwGPB4IJUnekWXqr5TyrNDFnhLNzy7kNRtK/hm/eb16purv/po/OilvbHf62/6N3md/3KwYU+QLreElByeTOYAWKcHYYnJSmV+x0BUJ17Qnd5R7Ch2DUAiLCjI8bSZnnfPmUfgAVi0HECp0lSPKn8ddLvTz9r8h7PGL3C6zsA6vEOFH2SzlcI6OJk0yQqlw4HNzquDampuk5RZ3bqDrcFiIYnMKce6uMGiMIImo5uZNypMYq08LJQtJpC0aK8vKEZxG8g6zV6ckwLrnab3142++mcFkHYbGyhsZhfxm2iUE6sH1QQOPcg1Hoa95jLduoCRh3jb5qppzf75US9kSY+Jj2x55ny+N80fW1oamx8WAXZikwBLCQ80WZy56HRiUb5ky35tQ3PJyc9pwmUgzrKsXi6IcQJoA6ft4fOR12E47XR8zbzB0fcuGLrr7zZ3n9z95UfjR5/YG/u3trPfXt2vfnd1t/qhet1rpTdwjASZlG5iG9+MN/Exenw+vBh+sFltXouau5fyCJDM73tK5fReTseBwKBBTs93N3efPVs/+3T1ZvWvfOffSPt0OzwbtiPGCESi6A6Hw+nwKRvEJbkoZeXcsRsLCnr2qVOXUk43GnULwXOX347duBd1qZo9/5pb9bMEDwuZVXA4AMlD33E28q/DNTuFr9kjwGnS3YZ5R8DrwUfr0QaIh1/21iudnj+RVeZrIUXz+LWIUFV8KYwwyVBYnJFrHxRFZAQ5lBQoZsxJ06T6HsCYk+3CtPWifXHbU9ozK0eyEY+dcn9TgXwZdNb3v2eT8+wAAMVICt64TgfwTMQG1d5kT/Bm9kGsZtVHN3sNpgd7ZsPpGYnlrnxqiqOllrUqGy5wbM09D6NF/Zpk7MKsis2JOOjY37WNP0aN8Mx9PEFJHXvMPHdgOfU6l0EvG/zH5h6IyxnYXBzTufmJOAIOjtMDkHZkAX6HZgsEsuX85sWbn66w+k+3fht2Z/8NBMdrfJdgIGEj0x4CQ7GKiA6A8sf5z9+8fPP3O9sNI8a8OM7l+2oLUcZTQOS9egkFRYMG3Nv93f2L+7/v7rrftjv77e5N92Pd6hd72+8RGEaMQyhWINa1MWBTH0T1TTX26DtRtuIqderW9tY+im18VPry6ebZ5idjGk/ZmJyjON/5+UQPN/CAR52Y8FJHa9lcd6tSEQ9zE7NmO6VqxX/IAq3u9CCb7liPzrmDiI3NRnJZ/QsVDxq+1eg2JRoKAm6AB5msemsVC3VR89BLPZpaC9UsEk4DxxFGlmIoHtnkmcCO0pCT7kEMBLbFuBO1YWgr4y4Wg36/AZAvD0SmmZECYBSxDaOBSAL2AHcgRgiZUojIbbr0IaBJLVFMj+irUzTMsR314n4+jsSsgkJvlYoRSCCzSBfgsto1CTtqCnmpMX3OYv3aJviyojg2QxMndvS8gmq75jiuHTg7JirAhf7DO++hIA4a7N7uR3/lP9ZKf3Zzf/NPaUgv8Br/Enf4jqBoLrVu2VYAYng5/JfPvvnZn3+6+vTze9yPguwCUC6rs2OKrS81jKn1ecre9sPb27c/f7Z69ovVZvUdG+zW5RaMMnDIe+ytoJRQaMVVcbjXy0ASFCTZsXOXp9vx9lm/71/pc30bGf3+5f6/vH359oeDD8OJ4780E6R3QeQ4eKQSCUIFh1Z7yKZH168WMm+O3haq8yGVzsqUUvvQCw5T6Yj2vbf1YJoSOcyBtFDamNJwEXWVqIFwsDYEWJnDoIlwr04UhkqPlwoiPAQ3NgqrFI8cZoMXba3E1pNvuPI9pW1x24+db0Dsghyj9kEeiYO+jvTVBwGQBiLj979n3K1T8RyjyCGcO0qrqAM+I4CRYuY0RRQVKHjIOVfXmuhTqWxn+OpLcwk6WCI8UF6FdSBKIorqbgs4hGxyLhFeLoyndtp2ZkHFhQX+lPfOsuo4ZrB2ybzx3CL4VKuVa8CGV4gMHueoI2zEyK22ArHP6/yzZ6tnd2us1/7c/8le27dHG7eFZVCRpyG9EJXffPzmbz979tlP99znXIVzdsVxnBM54Erhw5Oqk0BowFD2tt83y3VYsXWXu5sudXfZMrJy2Wm3l6QBw5CU3OluLS6DIJJSv75bf9x92v1r7fRSG30DBSkjj9tuuztBX12vCFQdfmL7au0asRJuIXoOr+BQv07UVFjtJ7QUQE0T4ETd+7Nat5MhCciq9uqpDVqNzfuq1EA3ROulGJqZ4vTusiVtTS0XCpDV5EsJxodZnEpls1mqCAV8mHaXUa0pHjKOYRyKa2ehrZfYDD02lLYp2T4n24kcwjiSGKkYx94/mMX61x5A2i1HTRDP7c1PQRsIFZE7CKNNfv4Bsu76bVJeELRWuTuO5DXgcnjSjHJR7Uk+vlBMlTfllEGgtjGZQKNOujLOcP6nLMHtiv7HucCn5fyMLaijWOyclxPxX/btkrnetf8/KzIIBAYMkhSFZdxyWxLThs/5OW7xD6NGDRzGiICFWTAiey7BiIKCRfVxDiSILx71+2QwLijY2nbcr/afr7v1G2758c3m5pvjerw3mg8ccigkKQJRQtPIAz1F6tKY1v3b/tvdp93v4w3+pSTCMA7Phv/62Uef/c3Wt3u9m+53Cfx1cuPSwKOBBa0ELcSUi3tRspA3WWt4wUEKO11XfJAAV4PEOswTFpKFhGqvToacUmbAKYwVvDSnrGfHpQdLE6GCVUGVXZFju3pDYIDKmoW6ce6YUZAFDCB3InbFuLHQzktsinFroXsvvgex2667wYv2qaTRivLQe+xuu689eHxQAPnjP434X/5Xi6H3sKJS3EoFDE38dCiQTZQhAkFMxlOEvK1YfoQGeagqdGiin7sdUgPrCV3zd0FOCivWnZSsbWysztQ+BFPhuNXKMQv2S35DTwGOZWTvub7LKcXUh7rxid8f7gsERoyRlUeHW9t1UiYVFARCMumBi3zoEVy527YvAwzw7hzTNVQWCkpsu+3bF/Zi78WfpU365MWrF6+71N2NGnNRgcHgck8l9WlMax/9xu7tG7azl3Zv38aAF3IN0cfr/e3+Bz//5Of/+efPf/7jYiXeo3l+ysPJ2BroFGCtn+El3ItSytFZiWSSCZSMJQwRZtHcq2vzfdqJlTDi8NFFrTrkVnNq8yEvpF6LPlFarUKZg8gkzG+W/lMzhVUNTRRUB6sCchoKHgnsVZNURwBbAQOBAdRO4JbSRkV3Ydy4cZdK7Pp92Y29D/2+DLublC1Uwqjnd/v47JPbrz14fOgKBP/v//h7+d/9xx94dhsB5AB3VrQhdANhZ0QWtBc5gKqunDykjvmDNc5Rjt/ayYnWDDvMnVDibJCwHJ6Ps15Km0RvUsKWQke1LJFCyfTQFJwPlNkZauba3fg19MdJu/QTjfJLNNFTm8X8JQDJNcfAqLoHFRRdWpCfQiPhtBrtKZTfe1NZgdBgw3h/e/+LcTX+LL1J39Ib/Va/6nd2a59qUKei2l8otrKdvbDRnmPECjt8AwLRYaPn+mF+ln92/+z+nz69/fRHr7vXbwcOw4nq49gx8QRVOldSlYMkNySG5EXwInqJ6Z/VqiFMxijGLFMpxklgH5TgRWb1OcJiiptV1CAojZX4AlsUba50VnPPao4U05U4A49anQsFZEDVyVc1/XFHcA/ErvVc7yEMgJr1CPcithR2IPaCtgpswmxjoS2ATTiH7Bq6sYy5s5Jy5JQj0hjxf/3vrwP4GX4dbulDH8DQp7EfMtAcLCmNIIqFAsAOQobqDgHACKFvKWUt6/jhJKceURRzrf/RC2YCl9bLyATCJNQYa42UsoXCI5RloxflHPX+dpIDjzNKjg3fLSXIlxRawPlQmuV9S735scfH4j0559v1ZVYZp4Y43ydr5NqBS35JIMb3fL73of8eaCyWctfffXr37O5v+23/2xy4xo/x+9bbtzjw+cHoRUgc+RysmeplVX4aXdyV5+Un44vxZ/fr+8/u/f7ujnf7LbbDFLj1Hu+/3v3XrArrVHnwQDuFWUTxEvIc9FKlvYCAQjOjhxN0RjszTGT2Eo5qZGgQRgvRAmS99p3Vq4oUhhpCpUCtFoiF6nIyRUT1uaqJqNKU4LcF2PI01AwPdQ/VtD8Ku6oA1Uhh09abLesA9NajbIvZjtKQsobboslWfcTjqIpfm9sHB5A//6Pfif/+//thpByRcpGpZRRLWwIbkzaUnlPaVxBRR1VHzZYjUGZcaGASAT6mIjTxou3xpX0flAQyWnMuMxBOZRCjQqOXGCJz27EMY/bd2GlnQmaotCImcDx8aMp4n4dKHWu2H2u+n6KvdObCLkd2isdornPS4GvzQoRfbo9AV/LzXxYYfVGq6ouA73LyHjvflZ9/4+d/5dnTizcv/tCy3drOfldJb1TPTcCwi4/i76KLt6OPm/3t/qfDani763d3pSvDiDEPHPJOu7wAD135mnUKQNqUbVVBScZQotBZILxItQqplUjLNa8GqEZFMKxCRXPOZfESZlJ4DlrIa8SsZCE3qUXSwho41MqleVIuen/z48wQCh+yNPaNFtuLh3jY+/b1bfv5nUWzYifuqIMp4h4VRAYvZcokP2at/mt3+6AA8hf//i/03T/5Lv/8j34n/7v/+IMQOVDaQ9qbsIO0Y2iw0I7CQGgPoW87hK4BgR2GfxtQ4HFz+XBRtKba4VplDQ+IlhMgBDJNhaFiQDg1AjGK3Idxl3K570bblcQxjCUcYSUiqi3RqTCpOYC8a+1eL655r2Si73WEmjsVR7ucPl8u8qd6L7/M3fWpHgCvqEbep1L4omDxvpXLuen+a+jId35eWIbXN68HfUu77Xr7w37sn3dj96p05U6uAQTCY9g92/0i93mTkfNgQx45jgWlAIhAqKgoEDUF8fF5cqkvQxy3FG+zHJPCSWYh9xKdl+gsNFqJ7CWKR8hLhBetGoCwzlegmCuDqL4zxuyhgKSUQxYKK0oeMVoIVoTmmxV8AJNJkVlmPcd5Jb7ME58yOjat0tjMgGML4PP28wlIhlaVLPM9BjwOeJqbvwZwsG76DYD8c97+zV/9HAByGkvucpSmeHjWqpEtpT2FHaWbuouYzAxVT6SmD19QNEcvVD4yY1A0VWNpMydNMhgjxT2AXduR7ADclWT3xW0bxjHMhuyWjVD4o6nmOYAsKxBvoGGTnQMe+0xNsyec5VWwKb2uaXyfA5Bz/k+/rL7F+zynrngcv+Rj45f0GOH9Yn/fec2ZuXy+/vzTu9Xd5x7uFKsHAht1C6pYKWSNyw2EGnhMyQVqwBGnqaizYKbFznq+QNdQjoBTShbqGoj0qUT2rOI55EXFS8BCk+2QRBQvUYCqxhK5a0BkFpIVpdaQp0V4YwYK68K9nn8eOn7cSxCJeQUCYKx9DWyn67qqs7AFatQtatN8F8aRwggiM5Q9tMeDUms+KFgaeAR+zW4fHED+5//wl/ibP/gEQ5/Gm+24hrDvx7IWOADaUfVDNuk5hB2BFSqn2fPxTn+eQRKz13ZsFx/TKl3NEYXaEFexGg8zMDBQkcM4AjFQ2Odk96jHsxM5Fuc4mMtzQUk+T6qzRfXRAUieIzX/HwpwPoCEt7kSNr+vyUo+RHhThV3j6ntsob2UWHjtYvllzIO876L+y+p/fNlAySeCzTHwOHwfFnnAgEPX493fO1qFtmb5fMGPI72wc5UsFo99lIDX6CS1gb/xIcdckzy3AUJMwBCUunYiSg+DehLJBhKyEKxSYuUAKFIx6REte1BA6iSFOI/PnnoUY2ug7wEMIncAtiK3Iu4A7Fug3DA9roFHQBhoGhQaBUSXY798T38dweOrU4H89S/0N3/wCT75+b0sFCJHQu1D1MCqkJhSvm7r99i1419eLEtbinP2Hc2HF4bGs4oIFhRRAeNIcaS0sxIZQB672Flo4zmGMO4hKJzaJp9XPwfgYN2d9RSSRfQA6SWsUlc0QtYuKLbENBPJMKJO0PLB0vohRfHYZPu5LOtTi5vO9BwuVQLvCyh8Imh8VcHi3Os7NYWPE+/3MXA4pdqLC1ThPLtlHjWwpK7ixM59fgzzHfbhGivJIo3FZQwFvQncocNmCBMzkGoTXKmJTpqHHWiAzWIVDupIC6k1zA8eZWoDxG1+w6gm4+dhgLBV6vU49fh9KTO7obFm/jCLNU1QAMIZQUa4lTarMuRkmdLoRYWhAcTYDyV7ibztkm62+fB+/LqCxwcHkO9/zzgDEQBQMYLSCKCYVNQ8sxpoTHzkO0mGfHxh2LmegB5XCmpKEqvPPzmVUl5URI1eyDDApOwl9t1YRi+xG3sfLCL2607bhwt1oqS6fp9BwSyiWFHnJVCdRiUrzdKn2s4FDr47dbY3jAgji1vbsTU7BuPcgfjYkOIpj6lrMssv8vN4erPwqbnZ1+R08JcEBl8URM4p7L6MAc4lUBwDEZygrY65NS8rk2MRqsccDjSZjIbRs1tiknmR51Q7HTnV8yQhAFpYOfhj9QTG5kdfmpJrmsNqaxITKIewEtiRaA7C7KqlER9oYslalEOgRthOliT1PSJM1f09A0jNUgVBKtyiWLVoD2fkZFHc8tgZcudocv8CQP1QZCF5Dt1uhrK96fTxp9tfa/D4ylQg85uHpl3P2KjW0iqPF3iIxZ0ek/HYUffYLtqWnC4f0gyXq6E1DXmbJgQpFBHygjBFeFbJnWUvkbsxxpzqMGQ/5Njc9tg86/ny9W7FUGrZIfQSLtIslACYRSQCxphmVWQ5WQHA8IhiFsUZNBMjoqSayxxWbfAaiNgRIJn//1jPQ0d2nTiywOAIlXGuajmn8DkWPnWMjjsHMNfY4H9IADl1HMcsbZ4Ceud8xfAESlNn6KpTPZJYUEFzQEEYQdGK0wA3Cj2FJKIXuRbLSoYUxpRyJGftlVSDRXU16xwhYGxUbgbYeoWqhqnGDtIqgisCPaHUnHadkEkwNOoXkwkmHzJBQE4ujATZRaWrIowKNxUnipmNvaMki6EzGztXTob9ugtANQ+dUBoD3VhEIX7y2y/i+d1e/+f/cf9rDR4fFEDm1ceM9lleAGVWgk/mZHn2f87uS2d4/2OL1BQ4M58eT7MOXTr0UtRO8OaF1Y+FAPTyzV4Ayua2UyoRb16u8Z0fvlnte7fcOQF0YWxpaFhZYE2ps1BX085kEEzG6IaCcIYXIDGUk5XiKsUpwqK4iQKKI1hkIufJZ+cSBU/tZHWCDz9FZ+jMQoQTYAMct3Q/FfN70VQRx9Mqf1mzLF+0Gjl1jJeql0seYnHkXD5lnX+pgowToKJT1QceJLkON1CRSrLUeiI9gF5AJ0PXtejasINHVk+RVuTNq72vFrqYArccoDXaqjegA7Wq1Qd61Ahfr1WI5hlAUw90ctL1BhwWlRYOGS1ID6cXN8tuKXfmwyqlnKzbrdMwdr7KnWm37lK1fazP613Efn0b+3UKAPgJXui7f/JN/jpMm/+qVCDLqmHexBvmnCYehvOmC8lxXdN1ae1R8NhmZLoI+/b/FapWfDquqbcxD1QKL4FvfLrtn70dsLtJabWzfuz9Jox9kOuSbEXpFsAKQieDW0GykD+6so2luJXiHC3kOakQnk2RKERprcviVndV0rQDm1cifobCWgLEfEZkOXi5DKrCma9xpJoBTicbnuqpHAODc9TVVwUsjtFMp6o0Xuh/4EIltsws4Zn3+hqPr0uzRXGE/qoTtE6wwDDyYEYAACAASURBVBqNRUgdhQ5CJ9Krwza9a7EIXpREmBd1AmiBTlXhRE0sca3+jaDXCF50ILsZcHSAvDpHsM2iYLJez+0rgeq2K5IVOJDCyHBjGC27ee7McrJuTNblZBh7H4fOY+y9263SSsZBxozTYpRfa/D4KgGILUAgLZqBduQCXMr6zlmIzB+zNBk8qKQWC3E3A5Pp/h6PpbkC4J7DPSs8B0zqcjJLOfriXJdkSQNWxe0Q1UupM6Gn5Jj8ukgEEbW0tnHsLFeOGLnRWwE3yVg8ZKjW2JO7rIOcS4ftwmJxjBc/ptiJK3j0ZTDTshKZy5vTEartUhzuh54U/yLgwvek2s7Z3Jwzf7Qz1d21FBfwbihZ4NggK4mwh55EgTkPlbxS2ytU88KREgNeKj3siC4As9AabE5VPARLuQAnSQGJbLnuqhG4rUdi1c7oQbfcqg4BdBG5ggcYk0Cl9mysGC2cLMmQkyN3zrFzjclt7Dzl5BH1mptAdFxsOg/S3d8AyFeDviLeVZEAj5vEy2rDcNl6Wyd2eTwDYvOhP8yqnWmyfA4kHWpcpgEyC5V+yH03sOu6sgrjs5ysK269iI7CuoHeCkBqNFlqvGyIVHgM2U1eLMZkyp3X/JFRBilAeDFCNIWB7WJJkOYgcmwROVdF6ETTNc6AxyVgWdJrvvh3jrKyK6ihX5XdH58IGE/53WsSHq+VbccJuvLsrRqyQ2EIylgchc2OpGpbfMBD3EJrpIcBLCmURMJq8FfNUH/wtyKlroHEAzjWhjk0+WHNzwlODf5HK4DBEDKOenjc1P+cfqfaPTZr+d/cfrUqkGWzcT6R3S0WcJ/9ztLx9tyg3LIE5eLvzAFEix1yWvRopoTEdbu/eMiCpIVoQ/RhXFvIw9mnHF0x9gBuQK5E9K3MdxArNF17tKyEMMqTRS7mVgwWkpfo9quU68UaQDIgB5EMNdSKMduFnWpI25EF5ZRn1rUgcwlM5pXIKZrtXJ/m1PenQPGrCh7v8/Nj1jGnUiuX77/hXUnwqQn0U9SmztBXD89zkKDDpmqEwY7JImUkKrqcrE6QJ2YTRWNYcAXCKCUApVq214Co1hv0trBPDthobtjRqLIDxdkUL2rmJlOM4XT8Y4uyBYyDpNECOUzZi0pYFItpZAB7E4Y2Z/YweHhczvyb21cEQOzEwp5mJ/b8+362qHc4nrR3LF72mBWIH6FUVqiWBvOFbwKs28WFNjNJVLLK5XZeZKZYRbAXcZPIHsRKaBUIaZB6EB1a009EBJnDGJ4tp2Q+9F4soEEIsRykyWpBiaqGkxHWct4lgswL0F1mlegMZZTOcPOXZMDXgsgpMMMTgERXPha/osCCK98XHnnf55X8MTucUxuHgtPKq7NViYyQmrAD8HB6BFNxJgusQHQyDhHsi3EwYl2fnxMYrKdwKkotzhZBIRFCtV4UrEEEH37+0KdrEyG1E69MMADV1xDIMAwWKK1PMnjRPkx7rwFRu27EOHa2M7fBS+xRbU8mO5QR73pe/aZU+QpVIPPs7GX4UTf7+QoPjW8eqRawuIB4oeoZZ4+dU1ZzM8Sp59G3x/ezYz1w+ib0Yt1JAegl9SR7AJ2IFcCVKmDc1MFFdFOzrwXbZBkVRmuGckaBTfqbm3k166AhMJLhJawqGRkWQhjHRmVNC8CxgKtztMexZvY1U+w8018pi+d7SlP8VA7K+9jA/6rfLuWUC+8aC/LCez39zmTLkfHYpmP+79TCWR1FvabTUjAFUxjdgklkL7IT2aFW3zftGrqtJqnoWQOkVlYzP7qH9HQdzFHrGJTU0gjneekxd+RuwFRAZQiZYJY0CBhF7SHu6TZQsUPNNt8FuYWw78bYiGWfk03miWXWA8nLXtCvuwLrqwAg84U7LXaoPR5bgvgRQDlWveBMuX8ssc8XQNLjXTsSb9TVtKubLBG6WVVkTYfYA+iq4ZtWQKOsqoqkF9k95nRrzI1qVSILOo1OoWv8bIQVD2OpDUArxRWphA3uwRa1W5zHwqUMpwfazoGLnQCUU5JhHKFN5iKIOENBXaJVzgHBMUPDYwD0dQCXY9Prx1R0uKIXsuxzTXYfAx77RuVFRXIW3MKNVDidTtFFdCJTvQbUA3BKNxRuLTRQGk26NTXLkjZcy+YWX59YNqtIVC3s3hFpoFUlDegkCBlkQYuHYEGRYQAxUDHQJ1t37MPKjsC+DLYN495zHBtYfgdAfnP76lQgEy205Mb7I/z5XC3lR37HcDkEaN6on9NmWvRDpt7H7RFaTUeOQ02F0mmqSh6qlATCD3YOaNYPLU9BRJtGV8dgUC0xRxib6RxEWJCltfvCijIVyqmqHy3E6t11VPJ5Sg56qjK55r5zA3LHePS4YgHXldUIziyWuEC74UqA+ipWN6cEKNcq2HSk+sh4bFu+W/D/c94/jhzL4e+UZKTkDqRwI8boG4CsPWtF6c5L3HqJTcoxWtHeQrAImWCMw/XR5Lmau2yX1vMos1b5Q+UxVd7VbDUmRwsRA6CdxDBolHFQYLCinZXYWmhXhjJA2rMaJo6vv3Gzw+NJ/EeS9t9UHx8eQJbU1bKimBbrblYpzOcvlk104PJkcxzZmWrxt8vsZzd4kAtPcyHzx01qrH72fgpA4sOgYjo8nw5NerUDmKnNZKjKrKg8beQmj0wP4FJNHGXMYRxAxNB7oRRehDBG8/PSkcXdFu/3qZ/ZFSCynH5fgtRymlk4JQU9PZR4rL+CI9XUJZrmmq+XwOyrWrFcO61/qu8RM6CYAGTKuxhmVciTdt25c6YxkpViIpKX6K2o68ay7sZy042x9RyjF8lKjI2yLVUJdQiJSs1l25Z/mhOQafn6tbQ4EoBMsYmHVV9TKMtYLErxYPbQPow7EHsvGmScrNuPOhj/Bjy+mhVIN/s6n8/g7GfzWYKnusxqASJxovKYGyIWVAsVNfDg4ninYzxUIHhXiz+ncvK0UWtPclB3TCFYOjTkp+NUAQogRBhzS2bMxbkDFNVangUKiBYAwRBk1JnqY/lageOJisBj9Zst6L25G/JS+rycZg6824SMRcVyapE/BR525LiP9U3OSVSfAmLnQOdDLSp2ZTU2P8ZY0Fdz6moCj3n2xTUA8ujv7m47pBIJOTyM04T6zotGL5FTibDS8j9CfTNc3Deqa9/OpxUeAuJ4ZuOgOaDwnfNPml17ElkYKiBGD2RGieKm1S6HhZaU3eFzPwcc3/2T7y7HER6dE19X0PkgAPLHfxr6/vds2bSeL0D9kUVuKQNNi0XkWmXPvMlecFyZNVUV04m7nr1fxOMhw25WeZwKUJp2enMKrOBd1dn0mJhS2LyE1U0ZB+3LSNXcZhm2+1UqInMxG2lAeA3maX9WON0wP+Xgu6w4jgHHkkqcvweGd9PhypEqpJygU5aAEWdom+X5AByfuj8lRwUuZ2ScAo2LeR7/jKByKZ3x2DEdsyoZ8e5gaFr0sJ4kX717sSrPmg1RzfcQurHsPdME9CC3VHSU7iisWnRs3xJHY/H5z1WPy+prvjl89No4nW+VKq6AWCNxW09DGQUFY4wPFdd2/L//t8/LFUCBM3Teo3Psu3/y3a8lkHzoQcKlPfnUJNdssZ4P7S1T/ewK/vdSKtz8RPDZ134BGtOiu55dXP2sSjqWoxCLHbgtFtRlY7rxu1Vx1fTqYYHBIwYV7qNw9By7biijyCGMeex8NFElGPSDBTYu9D3OceVLUFn2hXz2mazav6XNy7EFfCnvXb5XOAEkyx23Hdl9L497qdwyvGu5cmqO4lwldE7S+qvUYF1Sijbb9U+f5bHP7Em3+xcrlGSek7G4pTDqJo0ZROE+Q/B9N5aMmjY68HHGeByptE6yDjxO2+nIpmb+K0u5s84AxbVmoFpsFA+g/d0/+e7Xyj/rq0Bh6Qg11c9opDjC3aczvD2PnDTLnYHNPtzlOThdPOvZ76fFz1YzsPPZ7mcebznMaKtp91SO0GmPwm+EQ5jNTtRI8d5CWxRtqbIVsaG0AzBQGIpx6FOJcConU05ASQYct7U4p9I5ppI6Ro9Mlcdc7pnxMJ/TLf7WsZx2LejDpfeZcNpHiosKqFv0xHCGwroECNdUKJcqkGv7K9deG7+sa26iXLsjO/c4AvqXgP3kbXfTiVK6N1JEH2RqM+CeSpBQ8SJVOW8VlBDIkFZ4GBb01htZbiAPi/TioMjHYFkw70fOXl+QLE4fe085WexX6ZiqDbhOSLKkCbm47uPrBCIfGkCOobgdoXbmTXQ7woHrwsJ3SgK5pNB80YPBjFKb/v569vhusXuZ5yX7jHedA8VSGjn92wMYCOwaiGwbJ/xWxi1K7CBuuwE7hrbNLiLnZHlYRR67hPLY5v0Y1XduV6UzVM2x3f1ywZnmc0Y8Hki0Mwu7rqCFlgOhtjgf0pFz49hOlLjOVVhX/J8XqK2nAoN+yaCiK352qhpbTqdfqsKO3ra3vVbb0XHbe7glC90AWPdDSQB6z1FSDohqyYZiHQYEKE22I3PzxCVzoOUGSbM1os1glclkEUAvY6dqsmg5Gfar5Jvb3jfP+phtYs+ZVC57nctNS5mtAXOBzm8qkC+Jt9URjnNOI9mMKiGON03tRAVyDkROgdh0Iq5mH/Y8LjfNjmfZtB0XfZU8O4nmtgh5dt+0i58ymQcA+9YovxcwgNioViQbCjsP7RQaS2gIq2E3Ijl2DhmTeFhQ53G6S+oPOD+hrBOVw7I/YkfA4phhIi70qHiEXsEJKopHel/X2Jg/dbG9VFVcoka/LCD455IXn/rs40If6drn1rDyKSaBfhtrAKvidEo3iVzLSM/hJomhUgcL61THNHXOaj7aPm/NI6zt3c1T84mrSkYTeSNykGEvsg8yhbEfVr4ubrx/3mNz2/vd836FBwNFHqFP59X4MSpVs2t7evwwq0i+NlTWh5bxAsedROdcu2Yf1tIS/JS99TUT0zyxMHUzQMBiBz8Hjzntkhc7jwkkpujdSdmyXwDIXD45f8y2AckWws4rZbX10KbUOY8SxpFCycmQk3k4U0427xetZ32aU7v0cwvIuQVpGWjlJ4Bj/nkC54O/gPPZGZfyQ54SOnVpU3HufLm0GfqqAMEX+b1TAPI+1cfhvJKZiodb0IbeOy/Ri3AL9Z2XdQzsEtF5UWcU9RBvS6pVInywb5+xVLbYdCYRYxti7ESuZBii9gzXMpZizGH2fOxNQ59K7qzb3PbcrVM39GnEg/LzGE21pNGXm9eYXdtzgPvaWcGnrwh4LD+A+cK0wuPG7alJ6kvJhMfUV8vdrM8qjrltOxZ8+/y55imJ+Qho3LfvN3g8tDXMKo+YAcf0sw0eBrr2APbFWETkIPPQe+TOcPdiZfuVp5y8F7CW2xp1fmXVQGRpVX/J5h1nehCnKpFjMbvHpLY489lce87gTLVxip7DFfddexyXgOnL6lF8qOc5Fy51Tu58/vlah6Ikk5foipsPfeos1I+d3wBYUViDSGIkL5FAJAbMBEOAIPyQfw4doyu9ggcDxBjkSmQJ41o1KqFEtQtSceaxc+XONfSusbPdbp1s7D1HzQDJizXiUg9kWX1MG8w0o7S/dlbwX4UKRIvdgy9KQi0WPs2qgUs71HMXiONx43YJXlz8nTk9g1mlMR/G2jbAmH/dzMBk1+4bZ2Cym4HJuACfYQY4RcQIcpQhwizunq8w9G77dZeKcyW3GwDPUCfnbxuIzAHk2qntc/fxRPW3BGKe6Uk8daG7JJl8CjhdcsDVFcDDLxlM9BV47LV9kXObixPPpkc7bpml8EjF2Y2dd1a0orT20Jpq5yzhKjKvNqOoLr2ofgxE+/JIqAG1BVvG3Jr1kjEX4024RZAqiShuKG7MnSEnY0sQXZdkfXabA8ipivwcTT4XyDi+unk1XwsA4YL35oL2mKt60oIGiSt2t+foinnmSGuwHf5W4LE6bDkJP29+Twv/BtXF9372/80MNHYA7hb9j3EGEtv2N4dZVTPvm4wi89h72fdJrz9a6+2LVdrddElEHxU8njcAuVkAiOPdWYmnLjY6sWguqw3H5YwKHKFLjt1/DRDwxGOF87ki71tdXDP1/XWpRK5Vnp0Djoc3qPYyTDUwqhPZhTGFsy9uKbu82rrTGexY0wwI0sxERE0gREsqb6hx+DxEJJFqHlxqVNWqVR6oMdF8VtxY3JiTYezcc+eWk+3G5Km4DeHMC2bhmNvxKbqv4LE6ca7M/Nr5aH1VEgnnZWL6/9t7l+RYkmRL7KiZewCZVfUepZtvQOGYQsleQa+AIj3qSe6gF1BLaOkl1AJqBzV6Q+6gZxx1jTikUEhW1yfz3gtEuJspB+EGqKurmpkHgIv7cReB4B9fMzt6jqoehW/uN2CdZKdGlGjZWbNxsGWsR+TKQ9ECLlk5VVjGLwI0/rGAxQchYT0KliKT5+VzUgtwxrobeOZAPA8hf/zdCb/88z0efxiYCWEeoy5r1ZMTI/qSy3t+71WohE4AubWCqeex8isf7r3zyt+Kpb8UDG6xzbd6m/qZhwAPYnGbzARC4HBNcOdr4ccpR4o50JADhRQJxIEDp8jhOuOJGdf5hIv9NBc28gweYfHwDSAKTBQy0cCBxhzolGJITPRjDoGWqZ88D3FOMeR8ncMTAKalWuuMZycKCQakAEVXq5X9e1HBoTVX/gCQV2AfMgmmm5T0dD2r/rumfTPa86d19ZWM0mcFVsB6xGXJa3xcwOPDAhz/UD8rjORBAYMEDNmxPQtp7LLcbwKQy2jb891AcwyBGDydhlkdmqGSj7jloKGOHAShboVSOwxrUyO5IUuRA0LBYCNvcei+x1jd17ov7nzvWa3/XbKjsCG5vjHMMVxHHjxJ1kxEAA1Xw9DyNYccCNeqKw58ZRzXobeZiYCrokVFHlvGEdJSvnsde3CdUXKtxBrz1UNuyIRTDpgy4T5fcyTT0zzCQMiBrMFasltfV1pmFVhaAeJqfR99IK93BcUoMtYVDmWhtSSJntyH1aEeHR1TV4LJ0rwHkef4ZQGNvysg+btgHw+CsSQBDBIsLNuPSUY5S8UVn+8G/O3f/ujNqibUeyFah8otOQvL8p1feMB6lWC16Xrk6Pi1fEevtLaH8XwJjP615LBa5WKVfSzMI1y/ZtDSPLhMGAzXUdDXYEce+jkQh3wdksbEyyBc5ifzRFrMSPn5Xrj8BkSLGRYtnOVaxHWFmmU/0wCiuExTDIvLNT3fxtNzlGX4F2xL8bV0lQzAsRjIIWG90gLXi7P4TGXj77XlSStB6+VBWOVQ5CyQpKQq+T+TAo9fBHj8CuCvgoH8soDHBzyX6z5g3RsiIxfCdt6A/DoByP/0yxn/+3/4X2HkGnRj5E3zrStMwDtEZBe5noRX683wkrTeob4HGHpBYu9G5i8ULN4yd4Ldr/uSMBeyFYi59HEgXCcPIuZrtoIW77ZlFjnJ/yLOzxLVlWHwdQJ7eV+LTEbXSYRlJjrKvV17DwnMTJTp+REmBvLSnJiJkYk5ETATXx0e8GxtL92JLyro0wah2rrI/LvDyuT1QUQu0gFr6xCraQzYNpt5M6BbEazOfWTjgCs0tCyqXwVQ/G1hG38XoPK3Rbb6tPzfRwMQvFr7J6nsD3/KG++hn/7DCtQ0dZ4UbQa2DsF7oueen1tuvvq9CpUIv6eqpzef0VOOSzcewK3KK9rBbt6KXdArAsXe3z29JotsdZ1nvjT/gfmaAWcmyhzAnBY5CyHz9RDP12FRYQEXBl2ND5kLwDyt++vcHUpXEOFnnAGYmMFMGbzsi2WK4eLwMBPzRMAUmKeQ+EwDHojxkXhVcl+qIR+EZD0pNmGVOHu+b0DD0fcAkJeBCKnDnB2pqzULghoMRMs8GbYdinzzZYNfSZYX0JCs4/9bPj8sf1NKdy1HWgv4GAD+8Kfs1on/+T/9uTh7SivuUkkmiwwSrlVYEfXBTzAO+d5KrVo1VqgwxR433FbpLjq/3/Oznp+3ek/egyHslSp7Zcx9j3PpHL+CyKIs8fXrBUT4ChacQuYhJI4h8xQyx5jzeHWgXkY4AzEwn4iZafGxEvPSGdcRt+JBc76mPzgBlIhx/cicKdCFmB9j4hnIF1C4cMrnHOhjCPwx5PwhJnzMM326nOIHMH8SjEN/yL2cKvt49f1h5/5K1+LES448Yh02gwMWvfO0rajXGzSlJRwZ1T/gOSn+t0Wy+rB8/TcA/+/yu1+Xnxfqa1mLbxbZH/6UV49/cQOtRbu6mKCAyYMAkDJ216uK4sbhWMsJ6PfCA4+aPxUMCYAbwNHTLNj6/x5WURvh29tz9BIw6cljUMfB38vGesf/Ui94l+7xcBWLmMAc54yQOcXEOaYc45w5pnwKmeeYOcbEHFPmkBjEPC8mikyMRNeRuImegSrSai/xzKBE4HmRoyZiPIaUL0CYgHxmCg+c+OOA/DETfQTjU4rhFyB/YqKPIfOvTPSYnkvtZe7DA4/NPvlehk69BwPRgFGuKCQs3fVtGZnxzsjU+1kwIglZcTEL2eqDYBu/Lp//CuC/L7/7VYDIE3j84U957n1xBHB4B5Z1YLN4nAU8LlhbrHs5iWC8HlZCnBvyTjAeV6wcwK0+g54DugdIegDEe82t7wF/mmMvK9nT3PhSxlJLgvOOx1Czlynsg9fsg0vvBxbWgZCZY8oxpsxxzjEmRkw8x8QxpDyGzClkzuH691eHXmZeDBZxzVdcVYrrxEKmRdLKYEqBeGaiKRDPuNoBXQh4JORPxPSJGB9D5g8zh19OjF9T5F844JccwgMxPg5z/oWJilw9Y+06vZKtjsmE7wMg3obTM8etpKwnYdWM7bxZAOX/SuJ8NvIeEjw+ijzHXwH8Zfn5fxdM5EGBR9bMohM8LJCQhQQwfqcrtxK2M9stj6qs7jN3HCiWPbtVGj07B3JPOWgvY6gdeNSRF6EKaFneagHtWeR7JbJeQOHOA34vM+r5X678nNSfMeUreIScGcB8nT4IjjkjpszjlChmnoeUQ5zzHFKOMXEOOV+HqWUeKHMO19xIIka8ylKMBTh4qeKip/VOnJa8x3R1ssaFM58p0CMF+hgCPcTEH1KkDzHlX+ch/OPKOvKHHMJDSPmXeQifxkuaz/dDqZic8Q0nwb/WHIhlpGh1lpeKLD2oKFQiR+t+Wm+4tleXxoalg/wX8fH3BSj+JoDjjCX5Vsth7ACPUAGAGhuRUpknaWh7mN7Oca4cuLXv6cZDjXG7w26v5GmNIrXyNFZQ0roveiFg0A4W0vP69li1UEMuNEdJ0/N8chAzBX6qvsohMQXGvEhTPMyZQ2Iap5RD4jlmnoc5j8Oc88JAYkiZA/NEGYGYh3DNZ0wLmym27mVcbcmLTCCaia/japl5YqKHwPyQM01M9IEDPsVEn3KgD+OUl8/pUw7h8e4cPoHo4zyEdDnF+ePv7jZy8wEeX4aEpRmJdmuNsIdGWaNrCbazrrdx5ALQC6REHLLq4iOe+z0KYBT5quRESk/IB6tyaudrI8FjwLqb3PKZas0sICULjlgbUwbn9np0cGrIQC0ZiTr1/b1rqifvQNhf4rxH9qGdYNF7+KPBthl2nkt+nQ320MotkSODAczLnmQKuVRhMV8BhJmYU1zmnw9zDsOcMcx5DomnYc4YppSGOaeQcoqJp8AcKfMlZB6XCq2ZmOMyN32RqxgLA7n2EDLm67NfxtUyZgJmpqucS8RLRSRdmPCwmC0+MtGZ6ToJcRpjDpkxjSF//M0p//b//pUB4P/5n37HB3B8WQyEFWjIz3qOxIBtwrg2tlJvDG+YkDUXesa65vtBMY5fl5+Vyqu/C/B4vBU8jLyHBBA90tdiIh6ri8bt3GGdY7JAp1e3b8k4be18P1t8zTXoHci3ThPsmfK453Z6x+bWAJkqz7n1foed8tjTbYcMvkpYV/Ag5jSknIc55+E6PGo4XdIYU6ZxSikmTnHOc8gciXkOmYdrTwbHpU8j41qCiyWxnsW9Lo6/C7iIgJCYZzwbq8yCseS4ZG6uve2Y7x/n/Ltfzwwg/8//1y/P5bf/B/DnAyveH0DULHR5iOi54xlrV96AtbtlDVBatN1K2mZsXXWLfHUWjKPkQQorkRYlL7Vo1kxCDq/Sc8d7DnyZyD4t/18+j4rVtCqdalJHr7lgSzZhvM4Y2N6cAd/ws9d6fLf0bTD6ihksEPKYR6sQxWJq1lrJS59HXvo8MjHnkHKmqyQ1jXNOw5TmcUrjeEl8uqQ8TikOc6ZhSlPMPF5zHlz6QXiRqp4a/VAKbYS3Fm2fn67qC1cgWfV8ifpfvu4V3gyzq83HOa53YiCWnlqS5HLy3wi74U97OgXsK13UG0myENmAN2Ntxy5zHL8I8NClfS+9JPOQg6HusTZIpIa+3gKiUdzP3hwDGczx1pJWekHk/9oA0+M2+1pgwvDNPlvg4T3OVv+T3Gv6oLXkr9pwtlVAdjWlwrNvyBVIUmDkpcLqEuc8nS4Jp0uax0sK45Tux0tKwzUvkmPOWJoJaen94KUBEEulFYtRtizAQ+dQn0FtO6VQs3sp78oJqDLPmgDQ738O2FMQ87Vd/3kB1/+ycy2/B4DoEkg5c0NuAvmmD45swx0RcwtELBdcWQN+wTXXUbpTHwXInAWI3HQ5yXMrB6IXeo/8oGWsAdsJgl6itOfQD68IIJ5zwGtKVi8Bll6QeQm4cIVBYwdLIwMcvNG08sD1pEhvLvxqmue10Y9ZlOummPJlnNJ0Os/zAh7xdJ7Hcc55nBKFzIky09W3HYEy83JbT2t8YQ9BsQ4YKkQJmJJSMEgFoGXt/4Dn0dV6HLOUo/OioHyzIPJfbjzD3iMHYpnURXXYWaaKXhlvq2KoJ6LTLOQiwKHYkBTZqshcF7EZ9x6cHrAac53NzdzjF2XZnWT1YYEv73is2QkM9kTftQP0PTcr33C44w2ej+XIsPd2rb9P8K1kWiOPIaN0Yn46+ANztFvWjAAAIABJREFUIOYcMnNIfBnmPA9zOp+mlMZL4nFKOE1piHPOcc6JmGlJlMerGQkPpZvdWCckHlh0gFI+Ns02Tlj3RpXrtHw+C/DQB+o3Z4T4tUpY1mHJCvllNFAWRlLUslaOaB1S1ptvSVmlCa8wkgfBPLRJ2oz9Iz5b7CMKpjA4jMOzObdkC11lNil92HMFqJWues2CYefBSB0BhnWI3cJU9vRa0M5DuTZHfo8UZj0+L4dHFXDIlUBiNoIK73XVNj9sfF9KasPSowHKQMjMQ8rzlYHky3iVr/L940xxzmmcUw6plOPyuDCNctsjgJIwHbCtPByUiiHXt2bGUcjin5REXHKCxT6lgAsbIMIAwu9/DvlblrK+BgZi0V8ZTUT1/YCtyaLVlU4dEa610XRkrsGDBeO4YG3TTHi5cZ6kz3Jh3+M58T06Ml7NXkJLfeXwgHqdb2FPlm2Jx0JeIuHwDf/TAo/emSfe3/Qm5ntzKtwASq8RMzdkLavaUIJIUkzEaiIlsWayB5AhcwxLwjvOmQLzPEwJcc7T3eOc7q8f+XRJFOccxymFkJ8MEuOSN9FydvlaKxA6B6oDHF2aLlWMOzw3B5d99oDnKsUHPE8njc558ZZGmQeAeJfywNK6pHyzrZ4EK6muy3d7TeTYiTYT1nkROe/8bGxAa1PVmIZ1uAYDQE4GgJyUrGUdatSQxTTgJmz7AHrKWb0phME5hLkjwudGZN7j+XTLXPUWKwkVkOntrG+BRAuQNIgw/JGqLYlWSpfSuDRjO2/Hut1s3ebVMBFYym/DMOc0TpnuznO6u6R0Os98uiQeL2kYp4SY8pWxPAPEYHxY50BwXudQYR4k9tWEdUl7YSb3y3MZl78ZlcQnn3/4/c+BDxby+RmIrLoiIUtZG0VqnBFbS/JaGWsrMWuNuNUUX9qZXLB20s3YzsCoyVK1SFIu9AHPVVL3gl7fGbotdR6KLaPD3vfMel2tCLcXvHv7LtjQ/r0gITfuo9UYF4zXLTdeWzQYICosdY/1vPWeeto/V8DQsnfJsBP17ICGnGkzAVf79ZjyBEYe5xSGKefTecb944wfPl3odEl0uswUZ0bMHOlaMnun9viggGBUsq4OWqLz+svnqVn9J/FzWeX4oEAmK5mMBdCVSaXzAR/vW8bLBgPRc8jJoao9EW6L0nsHVsB6FrLWjQtD2USwiml4flZW9K7Zh1zgA7amiKFxIHqHWMsEcE/fhOfsi53aP3dG7Rm+o7Bnj9/LTEi8p2i8fkC//xU1pLS93eraiNQaN8uVNc8qZyDdofXMbk/6kv1Si5TLHFLOd+fEd+cZp8uM0zmFu8d5HC85jFNmyhhDzkzLOFt6BoF72NWGgD3GugamMrCLRp7kXjyHR7G/TsvvSxL9JJ5zxLNfXpaKysFCPj8DoUrUIMvpGHbHta7z7tXv2dDvs8FEpJWJjsYi1vXmKx36r//mBy/aH5woSrMs2asxGhGZVXlm2ZYAdUfZvWW7vSW9tcOOK4ymZnRp5V1aAJJ3AEhPIj3sCFZ61jrQbxnSGg3cI+W15Kyg5Eyr4TapvfH0MV7SvEhWfLrMGKcUTueEu/McTucZS+MgwrU5sIAHifUuqzAlgMgCEsCuSIRiUTKPmsS+GgR4nBZVobD7Aiaz2H9ZsKAie5XPhYVJF+8DQN6BiWhQGFVkXzPuI2wTwDXpiioRGZQGPKnbSWKRWl2u+PDbE11Og+5t0T0XEhA1mERFt0cj58EN2cJiE8H4nrF/6FCPOyyhrz9iL1hRhb0B26lvwYnAXxLsWMBCFXC0fl7zp7JseBj1OfO116v2vLKxLsrPtPNsquRWrhIWc1oaAtPd44y784wfHuZw/zgNw5zDeEkhXFlHIOYCHnIvjCpfESr7nA2pUQIGsO39GIU0VZLod8v3p4V1FPm4DICLCiwGIW2Xx50PFvI+ORBrMWjaGZzDQ8tZXjRIFdmkloBMKtLZjJnFutR4/vTjtWjk429PwLb7e1AyVM1WXTcPRnXgZyPisnTtnsi6BrIeOPTq/a3Xf8+BB/hNY+QcilbyN+L2yhky8jAWQLCT2+ixDeEOBrJnhkerHNtqIGQHkDVTl+s2x8w5ZD7fP0z57pLotx8udHeeh9MlMWUOi5kiAYiBn8DihHUXuAy4PPbcw8A0M48iZ3GnpLiSYzwLQNH7NCmQmXC7O/QBIK94sbEosyHvZKztCrwqlJ5BOdlYdNragfCcNMfytdxMUTCSBFytpR/vT1CPU9eZa1YRYFuBBEO6iyoP0CMtwZD64ETjPS6zvVbfe+QZdOQPdOWRBoKgfm4lgIGXj3ltAd4eE8pe12HuDAJ6ArbWPiwODBcjF+JVYyUA+XSVsDgkzj98utA4pTBMmYc5A8w58CbPKS1DNCOXgK+98IKT1yD4PUpSDZDPs1Q5PuK5aOUsJKxJAE9Wtykl7G/e4uRLBhDLWn1Qi1cuqqQODqsPxNKMrWSsl8CV9zGrw1sCyUb7/PDbO2DrZVV01hO2SXAYcowGPCmh1XR9z9/Ikr64Iqn0lrXWRru+ViKajMNDT6vssXRh3G6h3ruOe263536s6NaSLmvssFXpZjWX6tGtumgkG38/D1NKcc4ZQPrhceLTJeH+ceY4ZwpLZzrWU0Zbcm7E1lbF2rcwWFR2gESyiVHlcu7wnEy/E0yjSF6l0iwat98L0geAvPQSLrxQUYbc4NGIsIMT7TL6rAVaXb5s5BEkUMy8/JwJgYlCDhRTDPFyF+lyGuKH353w6ccTf/zNaDUESgCxzCClNKaBMDgg4UXYFhiyIUnIzcUdkXFPqXBtRgvgD8GCARb6e1nqPIsgQ1amUSPPwhVA4RuBpEfG2DsLhBrSVnYYWO0wY4N9Suue0udUnKclC7HsPEqz7fnucc4A5rvznO4eZ5wuKYA3zFnKU7LyMhoMQf9vbXicJUVrax3ZuV6kq1HJy6XyUSoH2pk3KRby3SfP34OBWBVPhG3JYMS6rDJXbqfGbFrWHN7B+3Q4syh9ZCLmQJwD5TSE+OnH0+nxfkiP9yOmMVKOgVXEE9TGIye6aiWWrZ4EDaBWg5fFRGolzJbOrplK6GAYqOQqADufVeukL/c5CuljFKAcK0yu5V+FHXLQHvbRG8BYr32tz4Ube6GWo9FroFRWFd83adkzGcGKDExSSHmOmfM4pRyvxoiRAY4pQ7EJmd8rnlOSkcs+r6yAbsTW5FEHWVxhBqzYgzRa1PnGwkaCYCFZKQB6XRaTxe82mf7eElZW7CMa0RUZByQ5+YCai+gGILBtqNK2DldfaaKcA1GKIU5jGB5/GMeHH8bx429PmE4xzDHgfIpZRVvBYDShcaBr6l1LOg8OoHjSgwUOnlGfdYgFJ1quSTit7nTL0JGN90V6JMnnKw+AmqyGCrvqSezzzp9jB7DURgT3zv8gJ9gi+LNvZEmuHKBWmEiGXb3GANIwZ747zzxOKf/wOCNeR9VGABwz62AjqjNHjqyOSpGQEm7JV2gHhUEBRzbWesC2R0TurdEAEW2XREYuJh0y1vsxEK88NysJi40DRJduejqvN9fAAhmrZyAtX9ACHkiRYo5hmMY4PN4P4+P9MH/6zXg3neJwOcV8GSNxIBnlyIWo9eZaVZi0c9H9I5785PVB5Ir0VesVgKM/A/ua3176d4DddBnVa5INhhQcyao3oc2dB3+LafTIWzWWVFsrVAF3Nu6DFPuYlXz1gOe5NyUP4smB+cePlzBeEv/4aeIfPl1iTLmwDz2MSZulSpuShHUZrgYA7f4gGUVQ772X66QKg/BK6ovxok7Ipxe+5weAvCKIyIjfOuCkeZkcO8sVlkGNzcnGbWsZjfj6swlAZEJkojgv7GMa43C5G4ZpjHeXMc7zEChHQo4hG5q9TJjnxkGiG6pG48C0cgm9XkjssLZWlNsq970VGHovr1qtNs+9laPBCw78l/5Nj9SVO3I63JDmUGEyM9bzb4qMVcDkIvbb5n38za9nujun9E//eMSPn6bw48cpnaYUCQhxnTyPKhiSzEHb6QSDPY8KDHQgY3XWc0P2tpylo/jQ1ZS6K/4Aji9IwrI8eYC13bSOui0AQENasHThAL/iiZgwADRzIKQYmAOdUgyn811Mj/dDnsYY5iFgHgKna/4DsEsIW5Gv3lC6hyTC7x+xKqlyBRh6rD5eEk1T52FKL7wPbyZMT4/Kax78L63ggvNeeNIrN5gQKaabnfc/K/lKfy7sRLKBp8fxz/94jL/99Uw/PEx0/zhhnFMAg2Jiht0IKPev3h/ayFTuR1kJyc7+z4aEywbo6JzhbOyhpBiSlWOiV3jvDwB5BfCQi6Uc3JZBWcJ2bkEwpC55+6Eib5GhB5v+QUwgBjETxmkM8zTGMceQcyDkQCcOlBawYWz7VQJ8uw4r96BnF0ggCQ6IhEr+AKgXCbwlgLzV5urxkuqZ5/5aj+Gl+6DGGHsAJDuBEmE7pkCPL5gF6zgL4Cilq0kdvk/38T/8/QH3D3MIOdN4STROWbM9zRSyAfo6//dU+YhnBaB0gGu2wugzf9QFA5akK+3tR7Un2WHgeQf7OwDklTcMqTdb6plRLKBcOfAybMuHWnQXjEUkq74YAIvKK2aixAFDDkQAxhwppRiGeYiZA3EKlK6/Ixgyi1eWmR1QswZKWWNpo5K1Wiys9rOXzvju6UR/y0htD1B8iREjNz689yXDbijUyXE998MCkJL3mLHuAWEA+PN/+vNGLvvffg5yv1quvlYQpQEligCRlWTGWHvSJWzzPNGQoJN6HbICj/K6eAO1sjp3ImzX7UPK+pwA8oc/ZRa9IJadSRYMJBgLJisKDNj28IBdhaMBR1ZYPGJrVx0MsAITpRzAxBxSpCdbgxxIj9D0ouOsIhvNQoIDOKRepwC/t6GHBfSCxZ4yVO+1f4/ra5AXrNk2ucLWewdFFRnKAwXtqCtZSK18FwDw+yt4WK+1tSYtw9OkGBIJ5iHZx8mQsGEwLzKkKg2WGlCyYh+zeG08DzIrif7dy1jvJWFtaLFahFFRaK/u2zKHayXQSS22ldxF1yT6kkTkTJk4ZE6UOYXMU0w8xZRnABMBFDIiXwEkGmDgyVeeXTkb4JGw9vQZ8dxQ1wKs3qj81hnbrUmIh068n414TgladpHRdWEaFyFHnQWI6Cg/Y5tEn5TcVdhHS0a0ZMNaEQAZsloZ4nQx1t+dCOpaBpXZYBdJfJS8jsz5JAFgcGRtGGdWj3noASBvFHUB9nzlLKjmYFBGNvTTgLrZnJbDrPs1cyohAznwhRg5ZJ7jnKeY8jkmnsE4U+aYI8ma9pK3INid9LkRiUoNWMsARcIqgDLBrs4C6t3er3moW+WzDH9ux0tzBd8SWFiybIbd02DZj2gLkgvWZbnlZxJg5OGe1O1IoOEb3huGP0TLWgNJRP2WLKSl6WjIS7pXzBrbO2Pb8yLlvWQwE50/gnrtCW0HgANA3lDGsobYeLOOo8FCArY9IT3VWB5rkY8jPi0uQgqMHJhTzHyJKV9Ol/Q4DfESU74QQkjx6XCfcTVlsw7ZmlOuZw6pE4+SjciSXwtA0GADe0psufKcYLwnrdzMawLF17xxLfCwytp1VZEGj7P4+qJYiJSwgG1vkHe/Hvvwggg25OIM30GhMGjpbnvBcxKbxGOSwd6AbQ6VlSQmzxUJHkmwHfmzwtyykvqkzb2W0pI+2w4A+fwbZ2MNjbWrqlUnzg695M6NaiUnSUVeRACDAQYTZaSQcorAZZzSJcVwGac0j1O+XIgYtKqcqvUjWM+fHSC0KqmSWtTaJRQOvd7Tw7HHmsNL/if09V70NOvd6nX2pYOMtSa17MKG1COlJ806NBOZxN9mR1YyE/ceeChPO0uy0rb6ku3MWDcxZjxPANSvAVSglxVrKbdj3ZeeIDoJgJ0VwFwEyFg5Esa6nLkmbx0A8hlZiLb3kAevNjKTh5HVA6ElLFQkLGusa4ZthZGJcQaYY8IE8GWc0plBUw50Gaf0wARMp1ju/yQW4p3QdS0b6pqcAUf/9sohPTfc13Ch5cbtWR3i+vn2Gh3C0JvR8dr0gtFbAMxLbt9LhicHQGRUPRkfs/qQh3btdX/63ME6vIAoGsrCqA5ymacZFAuJQs4asXWmKLM8TiqI0t3oVgJ9Uq/bgwLYSfzvVJERs7NX+fDCer9LHqZRyVXS/8iy+NYWHwH1YT2WmaG1iSGjIGIkAmekDFz4AsZE4Mvpcneeh0BXrrKZR1EWuzRuI/jOtYBvr14zIdSgyPBN9KwRsNQh/9UOET0fQWrH1vPxWCB3gAN3/h3Q7q4H+hKgPZEmvxBY2NHvs/GhR8tKCUZWEq2kqR1y1EtZldfXYZUSP2Jr2T8oiUuCpgSPAkJBMR/d7zIrKesiQOMiXjvZA5MUe/EaF48CkfcAEMFCBtjW5fIx3S2fZSQfHP0dzuGqk2wwIgxtuhZoWUiiLySHDB7mnDlQ+ud/PGYmyp9+cwrGxpGboKeLnByQhLHJal2xlgdUbYaE19ncYzAYsC2jDPAdh73D3ao8A9qd9J4Ug8rv0fk4LBYE7O+j4U6wsRLo1s+Sklom+OWpT4/9pz/+RK8MIp7lUICd3ywH+Fnt2TOeu7/j8v0JzwUphSncCxC6YDsvvazHSeUnJHBJtnZRIJIUeOiZKNbYh0PKwvtamcjDqiyGkwIKxtq2m2B3YAPbxqXaAaR7KaQLr1xsmYAEBkfmCeBETCkmnnKg+XwaOBPNAgxLUnBWh2rEtiIrGCBoVVHpSizpzePNS7A6gS1rCzjylDdiVUuJwWCNgG9Xbn1vDQXT7LDnwKcKAKHzoPcApxfI4DDalkdVdh67xUo0iHgeZ6v385VApFZVBSM/UZjSIA7+i/j/E56T54PYf7JkvezFOwE2QXyW62bG2lNrMwRLMY5JMbiSl7Eqsaw+HcJRhfV5r4V9aNdZ+Vnq6XcqwggVGcaTWzzHVT3ulI18ySp5l685xDSPgR/vx/jpN6f0+OOofay8yigtI1neX2SwDKs0VnekR+M5WxJJhG3d4jUGBoN1RAPEPfuWXsljT/Tu9Uh4ANAym8wd7Kb2f9bradl+e9V2Vhm5xUDIiK51ojk6/5tfEUSsx68bZLVNyHn5n7N6vjPWdiXlDDipgLLIwZKhWHlA7VKh2VApOJixrVIrv9O9IxrkzSDje82DvBcD0R77spIpYt0kp10xNX1l2PbXNf3eW2C6HyPoAyNHinMMNJ0iMpGcsma550YjVwPUq7SywaRgSHgB9vwR77DTBwtgV+aQw0I06wgNWa4VvdbkMXQcvi05qcUaWlJZ3gFUuXHQeECDhuTG2PZrJKXXM3zPKy3N8E9//Mnrzdlbvmv5riWxFqSHVUmUX8T/lyKTk2IjA57nk5fbKKwhLEGlbqKVOTi9lqSUVnIaZwUasqlQsjyGbXlyVGC9B4AI9qHnNowqer9fPiSoFGBh2JVIXjd6a2aItENJ6oB9qp/PBOLriNuchoDLGDGdQhSPfxSLezQide9wJNRnYcgpfIP6sHyzNHvS4FGbn25F+lpKC42cDuP2KX+WNNDrq9XDYjwm02I4XAFkwO8grwFJK8+igWBWEfNsyCxZ5Ufke5Rhe2itHvNPf/ypB0Ss2yjyUhL3Kc1Rz+p5DeIAH8RnCToFcO7xPLt8EntCyriWNZBkbrIbvUhVj9hWrV2wrR7LRhCRD/h4HwYimcdg0FVtZz4q3XOoHFYB7YQxGZHaxaD/rCKbJb9BzASexhCmMZJYzGX++WjkbVqX95ijuH35emhjxeCwECiJrMe4z2NyOg8T8TpzNloA8xLDRKqACzp/xhVJkCuspFUswB0sxOr90CW7Xge2lmhSBSRXzNQDkaUAxmLyVs9SrYx7FntkEOwiGNKsrmYcjSCUDRk3KJnPSujLGSgPioVkwUIkw9rTg3YAyCuzD1K5An1ADku0MQqtU7IQOIunBRzZ2dTyoJYVG3ITPkUaORDnSDSNMUyniIcfRggQvFMgMsDvEOcGS4KRDyr3M6hNpOdP16bv1aSdWvLY6zrvARBusD9PsuqdZFgDG+oEKXRKYnudc3kH40HjcJfNg7OSsXTp6awOZi/3pSWyp8O2g4nIvEcWewjYjmbQ0XsQoCBn3rMBIA8CbEasXRhkMCoHWOlcpnzMZ/H6PWA90ndSoMtKBnNB4+gD+XzsQy+QOxVVW3INOdFHze9J+2dZG1U3Ws2w55Q/OXYyIc1DSCkGgNxxq5odUOWA8HR9cmQwarAYahyyPclpwJ/0WLNOqbEpL2q1HhPteG69z7uXvVCDFQC2R1ILhPbIazpnksReGLHuAdF9H1KKuSh9n7EeacCGNCblLNohZyWs7c/JiNiTCNhmtWcm8doPKricnbODxRlmFaHo11PmjS4GmzsbuaMJ9lCqIxfymQFEN8INWA9PGtTXJao/CXnLmmHs9VR4Zmf6IJCRFyltWYAMTSEzhcRMjBwSZ+JV49Ps6MzWQdfKE8gDS5bJJhX9RUXVCX63vpdv8R6Xx0Balu0M347F2ni9hotUyWVxRa5k7OvKr92Wfn7YyZrQIanp+8uwixgS1g13konoHNWIddmvLm+Vh/eEdnmqJV3pMmr9fJI69HURDcTnizgHLuJ3g8qTWIOmIBiNtI7X0xrP2Hbz672s2R0f+Y93ABDhoRPVAiiAIaWfH5aPQlcHBTg940xr0bWOJgO2ds86WksAB4ASAITMmQNyiiGJ/5/VhrZ6P6zoPDcOznKATFhbOAyOpOQVGHjMocdY0TJPbB3Gukhh7wTEnpnfOq/VmyupgWkr2q5Vsu29vRaTZNgFIuQwI3lYynUyYzsTJwumApVrcR+3M9tHlhJrV4IR2/LjWYHcZAQ9Z0dx0HK2ZuvlMX1SshqwnUBYXhfZlW5NZGRnnx4M5B0kLFlBdBKfByX93Cnd36r8QQNE9KQ0y/JDbqxZ0Hg5GfESGFMiMAhpmBPPY2Qw69kDMnLK8EdiygUYYFd46IFYllUDYTudjRw2EhwgqUmBqPxdb36Bbsg3WH/PlWg/N6SnllULdbAULV/pZHdwHlvolNVaDEbb/uj32XLsHQzpRifnIVhIUDJUTcbSLEQ715bHNCnWJNlINORt+f0F654PKX1B/X2EPU43wK5UgwBQxtp8MhkMhI/8x/sCiEwqay1zFEByj3XSbFTgUpOtvMPBavpiQwuWozQztskzxJl5nDKPl5Snu0Gyg/L8ZhVl1dx5dVQdsbW296Qja0AW4JtN6i5yGIwkGIeeBh9r/ntv9O6BKDmvSU91lAdC1CFJMdrJe0tWtEwKk/FeeYxsj0OxByLkSHUsArUEf5hUwrrnqJstKVNUaz1KENHVanLNFJCTlY56TU0q5yHBIzrr1mrM1HZGycgdyddrdnIfLXeBA0DeMP+hJakBwI947v0YxUepwtIHWWxo+kDdOkNvOmseALA2YssA5ph5mgbKMeX54YcxoW50KE0Vo0O7WwBYOwjhHEwZ2zLnWs4oOIeUVSAQnDxT6JCPqCFD9eYKuJFH6HEQfonkxCrSrRUlyPHMHnhwI7KvSYkRdr5pwHZ2CAz2oUt8N1JNZxJdM2VSAGX1aSQVfMFYrzpBHwQD0WCjqx7Lc4rwe3Zm2PNYZsXmYMiVB4B8ZgYiDx+ZNA8LeNCS+yhMRDblnVCft2FFkdQRwWYVQUpQ0Y1QBADjnHk6Rfybv37Kf/u3P2oPHsu+pICI1olbIKIP99CIXDVgtLypakBryUdZSQaefNhTfks78hw1sOgBGout9ET+HgMJztpBB2ts5VY8EM6KZVjrSB+SCVtzQz3BUM5C17PTuZOFWCCiZTX5s2SA+EWsLcs9OxhyrdwPUh5jdbZN8Oev6GFd2fm5W679PctXnxNAZJXFHdZ+N3cCRAYhYenEeXAO6Z4I06vU0R4+3ghLGYnMP36a8v/5v/yPWhOXspWuZMnYWo70yEdQUVgNeFqHlfe70JHr0IaOtcmDe3oy9pbT9oBJi52gATat28sGCwkGa6QG2+mxW/GuDH9GhTU7vfSHPOLZukNPMJywrdLCjSCiBz6hAbSF8W9m8mDdoxUMuTaI/SbXcnICLF38ID8n+LmuvPM9OgDkDSQsrcMXViEtnGVpb6nMokq0W+s+rjXHZSO6S45umgyWIkEoOTKbBIyM7SArr8QX2A7L0lUuLcmuxRKokjex8h/BAJGeg7LGbvbKR3tzLXvZTM2lmBVYWAaCPbkUdETE3MFUuAIeegZG6bZ+NFiHZh+7xtpWQEQezq0JnZ7/mnxOkm2QAeBS3tLATmg7C6ASSJrg8b2zj5p2/ZZMxPJxKgCi8yAFSE5oNxAStuNhrQPM0q+tqXDaymC1KdTm8uY3tA5ioG1AyA2aXeuMtmQozzjQeuzWZkLHIdd7aHrPtcdmpceCpcaoWlVrtWq1Ws6q1uFv+ZFZUwS19fhFHfRyrkWx4fiIa+nqp+X78vWj+Lr87sEAE9n/sGsIlTpIrZJXbUpoVbHpznrdg1E+9GsyKxZ1xtY/TJtQWvNV9N4/wOMLZCCyFLewCzmuchCMJDobvpYHqc2cyEpTlT+X9urlcUrpSCYka4ekp+1bwBc6pJtaYx83ciCoSGJWo6M+OJMhJwRsk/TWbfVY7fdIR95s973dwHs2e8+QKCuPtncKolV2m50AAdh2kGfns3aUnbD2fCoSlm6Ye3oOt1i+Kyai1xl1yoa6OZQNiVDLz7qRcBCBX2+TKhvyWvYCpgM8PiOA/P7nIMvuytd34vMI4DdYO9oWEDlVNPfWgcuOPESGjAVnsyZsDRFrneM6itE+Q4xtWa0HIKS03FayvVe6qt2XB3Sy2bIwyIT6iN7e3IdVDnqLAeWen7UAuQYo7ETUnksrOzIUGwd+TxLXYowJvg38RTCVR2w7r3OFWe8GkWXPez08NfcCVGTY5Kz3ZLy+F9hN6ohtAAAgAElEQVSNuz33iRbbPsDj8zMQWTkhbc7vhHxVfidBY4DfZY3Ow8qbE05GtOPJEy3WoW1Rig4r7atn9dxb3d89vk41Kc/brK3f6eoWCPDW+alYYYPY+R6h4zm/tuMvN1heizl4h37vrBJt125NGJSsQidzPblIsxqLsTwFNm8xL90Bkhb72LzmBquBAdLZCchyhYH0NLIeFVdfkITFSv4YBNsAniuwpKHi4GjSHuvghvyhZQdtzSF9sFgAn7UovUvX2EsAmSpA2HvYegzEO3x7TRg9axjtoKzzVz2DpHoZUI+sVysGCA1JhDoPDDQOvZrs1AIQy5BRD4WqWcRbUb1+7oTttE29Pp/2Ref8jxcBiQMmzf/ZcRusJNcWo2m9x5v1cIDH+wGIruGW1iVRMRGZMPfmTtQOkx7tXfdWyM2ru90T1s2MxUqBCt1fJrwB9iwEWc5o1a/vjap7fKt6I3cPKKzX2XJCHVDvNelhUBo8qMKuehLarZ/1VGUR2sOlMrY5h9bMec0QPHdfS9bTndW13J824gyKIWfnsH3T6zUO4I7bYCWbA/0zYQ7g+IIZiDyA78WBVECj9H7IKYS9Xk09mrm12WSJn7bpkOWq3iHiyVhaXrBmiNMbv857QaYGLMEBkZat+57HUCs1blVN9boQW7mnlrWMV/7tld7mhgzGqE+fBLbd/S05z8tBld6Pi2D/mgl/k66yf/hTzoKx9JwPh7/VlwgggnKSiFhPgnmUBsI7bOdoyCg3dlLRPQesjggt/T+JxzBinaCDYiFWSXBCe9DTl3D1AFttBjrteL2BPoPGmllmzWk4Gt/rAoxYke9qvmoWK2m5KXvSI8M2YOSO16dVVlzW4Qnrjuyz2GNPjXtvKWO9M5CwYib01izpAJC3ka8GwT5Kg2CxK5FNg9Li3TIBbB1MqNByLzKNhlwgR9V+wrqsdTOmVoGI7nolbO0bXgp6vVUuvWxnD4PrvW3acXu9zsqSaaADWKIhn+qpmD3l4T3vwd5GyN68VQ8Ds4YoSclqgG+y+d1cB0B8fQAiN8KowOQkmId045VSiSf91DpauUOSYCMSlHbQFnOKtcOiRHCKjdSs3F+TIdQO0t77fckB2CML1MwipXcSv+A56rUywR6FLH9Ws8qxQItvlAtrbAQVsATskcJW8YB0T5As2CsF7u44P67jei8AKZG8nPnxGxEV/YjnPMiAdblrbZBOj55vTa2DEcVK64O75W9HFb2OhgQCD0jwwuSkSM5bUaNl+Q4jKv1ceZeXAuJeNhkaQYF8n7I6VHVTZILdYxQccPLciz1L+tq6rLEsD9RCI0CSnd2yYz2p/3ti3j/98afwTuvALJk9AO0AEL0ptPvuHdZeVyPWpaKeC+0teQR25BFWEpu0nR6x1dEzPlMewwAPPc60ZcWhfbjCFyZZtDrltTTXakTbW93VGocMByykLBmMIMUKcLjxmDUoRIelaNdoeVl9I6WUvHSgX4SkZc14eS8A2XTxd85iP65vGUCWhFVJmo8CQKSBopx9LtlHhO1cC/gzvAl+T4gXAVqHRhSbdFRSx9Pj+f3Pgd5YU9Wg4M2ErlVKaTfjNwe/Hc8LhgxTK0nNN96293VoMKLaEDDvvnq67vf0tlAlUreKNvQMEGnfLuelWy7C78U8rGmBB4gcDOTpgDuJiF4mzu/FgUhYzz+25mq05Cp0UHtLviqbSHbFn/CcPPecZ0sly1uxD3mYyOZKPfpXN/vFxt99SSBiMQLdM+EZQL6E9XiSU2/X/y2A0QN6MJ6f1ZmuO9St76VRICt2E9BfPXbL61vzn7I8vCwDRf5Wq8MOANkHIvIQs/yuIp4HSUnmEeF3R/POg9DzxiG1sXh5TPK1iUrqYmzzM2/9Ggbx+t0JpjZUWMrJkARfMxfyEukjGK+tfmyeY3JtlO1LD7za39V6OHoCHGpE4pZsZx202iOr1gkvc0EnwT66Z37sCNq8v2MHCLVrg1VFdjCR7xhAJDCUJLkcKCW9r4Btp3NPI2Hv4KCWTCFBC2KjSYdgKR2lNwYQzwJegsOIbbWa9KqS3f69lWyvdYjUDnZt0hgcQPZs0fHKQHLL8+1pLq09Jq7IrmQwjpqXW8C2ii2L9aDt4/GK4GHJyPp3tXEERWaLi9QG5/ke13cIILKfIxpRtJxKOML3vyL0Velwx9+xs4nlYxwN0NBS14xrHiSUrtfPKPlINmexNil3jXh5NVbvwKiegxOGdGWVa3sDl7xDe8+c9Vsee49z657hVbXZ8NlgatrVoHzt+WbtAblb14EHMuS8d5IlydkfF6wHt312m5Xj+sIARCTQB/Vxp2Qs3WdhWU7spc7sRHmeNCRBTh5usidFRvwBb5+Q1uXHemzusGy8O+M10BGebJS8hX3sbSLkxsEZnOdqBQxsvB7Wwd172PT8TehgHRDBxB4wq/Uk6TnnFvPKDQbGNz7n12AhFkOykvulbLqsZcA2HH2aFHrIWN8fAynRr5SzCM/VVrqiSB7iOjG8J2Hes4m98k35OEYV7TPWUxFZ/H16QxCRZoxSKy6PJ2FdAh0VyOhqtlvAQ0tOnqTYdDRVr3U5JKxckwUiOhdRS673OOx6uYtceT49wNIjqXpsJKA+gbEGFm9dEVgDklbeQ88n/2wl8cf1tld8A/ZRDrMfl8PtBwC/xbV58AcA/7QAyW+Wn/+4fBRDxTt1ININjKQ2blQezHLkpRyH+XH5mw94HshTRmY+yij/3/87Sv/1v73e3v3Lv/4F//If/6VmU64HEU1Y68lJPaeL+jgbP7M+9LxsXSWjK37kx+x8eHO/qcKSAvYZ4rWArCdn4UX4ns1672HeO6/dsqex1v6ecb0v+dDA3/JF0wAs14UeyyvXqFzDR6f8d8pApBQ1KmYhh0XJv9PJ86ESNVtJx9am9byugmJBBVB/WMDjTkhsctzupG7jLViIli1m9Xwk5beS6be6AJMh80VDjrSceC27DEumGmAbZCYl55ARmUMdUnurilpyFxsspPd/LTn1FnChCmPS44T3PK+XsI9aEMeV5ysrrc4OiFwM4DhA43sDkN//HKK4XVl7zuogjuprb8yrxzhqEgQa0oc1iEf3WEhwKPmaB6zr6N/MkE6ZM2bYU+zk6yYNHmMlOtwrXWnwKIB6EiBlHV65IleQAQAJtlOtN0devh4BfpXWXiYiB4m17Pt7m1V7ZtwD/ihmuYdqh/Vb5D9qTsBckeN0iW4ZqXtWgFEaHPWM9tXzP3Ig3wGAiMQ5qYh9FBtfztKWyfOAurNoj0RVkzNqFhhRsRDZHa/LjUsBwCQW/5uU8zZs4mfYXei93dQ9h4bMC5XnPS9SY7F7kXPRW4ctOTKcTPxrFmAVVNSa/XoOWSvhC9TnstfyMVZQ05PY31OCXKs8a/2uR7rrYR+WpOrNbPfsVCYhoWpp1LLGf3qdS4PtASTfLgPRUSuMz6R+1oqSa41bVmOgV4FlbR4ZpWfBROTjulukLG+uOwGIb1XOKxx+rYg2w57a5238vYeGbJ4sICq17AIqMgjQ961fexKvt9Ug5/l3BfWYajKK9Rhq7IEd8Ki5O3uHWN4JFntnc2f4Ob3ckM16ZT5ugAhhXcRgPQ7d5yFzb2esrVX0HHgtW64+DjbyDQLIwj5qjqH6sNdWIjUQ8Tb0Xr1bg4d8zOWAfMB6SqLu/h7U/xM+Q0e65fC7RGT69Xrp3BEYr1FUmnU5EO4UewsOU7CAQOZxIMAjw7dTrxkhtqxFWrOxayaIrbJwbvwfHAmLK7KVxzLIiPxrBzngT0rck8uBsdY9e3ir7DwrlmkxR2v6pzkn/gCRb5OBQDALzUaiwTwsOSIbGyug7njqGSrW5Ae5GSTjkG7B0gRSSzmlIOAibuOzjgddNtCbbKIFnLKjaRf2cca6SMJrCrSMHwc8z+rQkyetah90AEhAu2LJk8G4crhTQwaqHfa1n3mgRB2MQLPO3HGbexox4bDa7ABlrjAw3QBb1pLu+9ISoK7wK4PZgCPB/u0AiGAfMDZ4NnRNhj86VEZYwfi6FyA8WUPLX3qwkJz7oXMiVsXWU/PXZ3Dn/dzXLVVg1oGuq8O0P5q2qQ+GZBXRNwPdywWh4+vWxMEWy/XMGa28CVdYtgd6wLbpUO4Pr5AgGwwB2Fe11tOzwbD9rmRfUmmAHaBKdY09KkvtC/N9OlN++uNPDIAPJvJtMRBPHtDJ1oht123rdlqSQE1e0DQ8YeuDFRTTkFVHuslQHoSvKRt9EdfOKjDrwK8NttKs1Gsg1bcXK4yGUK/a8qQ1VP6nF3yAvkZWb116v+OG9CX3kr6v7BzqtebE2n6mBiOzvtcAMgnwKLmRmrSYhVwq39tJyngtOUu5W1uy8HG9M4CQkq+0Xmod8LnBIuTEOEvC4h2b2gIdedtSRpH9DQPWDsInBS5ByFgSmL5FEAHsKrBQOcC1QWLA/mY07zZjBURggA/QzqtYuZqWhXvP3HTG/kZGGIBh9cTsHS/cy0CowkQsxgVH2tPVWLIx1crNyP8v5b3WgK1J3ocFImrK4iawPKq6vjwG4nkYaesJhm24xg7VtnTdlsV2Td6SViSMbVOhnF+iXW21RXpUEXL6lhbHjiowa+KfljRhSFut7mf5Pkb4Tr4tJoIKaGjDT6owF3KeY69ctrc6zpO1vGmGHkPYW8JLDSmNsM+eXo7Y1XNKvI7/Invp6aHlY1ZMpMUmzfPmSMi/I4As+Q9L9yV1SOv7suhqdsCkNYkQHTKYlWuxOtO1pKKZx0lFRMC6H+KbvHZUgbVKii12GhvRbusgt5Lo1tcafKT1fVSA0mPrQZ2Pay+T6XU/tg758EogsjeHVGM+WbF92ffh5WySODuSI1UHbPOsrWBETz7EASLvy0C8TaCtKCSdlZG6V46ov/YqsWjnpsgOI9GzSEoj4UdD5pKWLCtZ5htMpLdAhR3NueUSQIam7UW94cYDl5xAQTaPnrBuFJVW6ZYsRo3bB/p8qQB7Vjs3AKcnX9Mah9uSqW79WQ1EdCVfaqgPs8E+oxHkSSbCsPNvFjgdVV1fqIQF2FUnQYGH/F0yohUJHFqv9fpErK8t8ADqZnEaKHTVVZG37rBNCn5TeZDXBJYGc+mNtveMiNV/p5nmKNaalrN0FWBtPgWrw6iVpN9jfGhJw7qZD43bfg3pqsb0a7+3rOiBddUYlNpQzglPuiv78BHPYxc8BiJLhFns0wI8jGPy4RcDIHqzrjz9sc5/lKgzic9ZfM5qUdVmT7SmE1raJ1W0Zs1KChuRuY+AbXKvAMl3CyBGxUur7LOVBO45wMh5r2HIpB5LkNV32gK/R8LpYQLoeC7cYDMBtmuxzu15bGYPeLSMIFs2LdwAEe92reoyq3IvYF3NpfOZui+o5F4uCrSAY3jVuwOIFflksTFlVVV50yasbcn11DK9GHusTrwJhWxooaQocgGAqA4ULTmUJsNH8T9e0u57BI6eDnErGV07UF9jop51aOUdB6ZVIi5dhKlDsusBGYvNWLIX0N+xD/TPbq+BsAUCLXfhGoBwY68HrM1YYQSiJ3W7Vk9SCU4veE7QE47Jh18EgFgJOzkoqCTEJgEiyfisrZyTQUO9+7MWICqb3+qqtUpMC0XWDYTRYCSEax4k/uFP+bthIQI8rHLbWrVScKJ8izW+VpBjNYhq1hHhW+rU1pR10FLn3qlJerWKKIZf+RZ2MpAWi+jZby0VwJs0WWMuWhkYsB7oxoq5WQFMmZszo39c9nG9AwPRh68EhAHrBJZlupYVkGRDeqqZ3Fk2J63adytS04dJ6fnQ/SPaguO7WpAGeARsezUi/LJbT27YM7J17zqVACIT6CcVvQbYZaCtQ1fviZqdiZXf0DmXDLt8WoNMbV0T9k9WrAH4Xk8tz8WYGvKZtb5GpWxYM2cslrl3+NdxfUYGIkt2BxURyISZJV+VvAFjmwcJhlbZO0zKsu6W7MPbOF5JbxTR6oi1O+9Zbti3cuf9Qi+rr0IzNd3pr4eKWXJXz2jXPQeAvJ+ItbfZgO1Qs1uCAW5IOD1XC7Q8t2MNNLXS8toIYsu5N70AwKlT0qMKG5H7UueyYuV11zNJZmwl8wNEvgAGoqN+GWXqEr0CHnoWQHmjy9yJCNtGo6dxqod2W/TY051HdfBYh6dVxvw9sA/5OshO/VF86MFUngTYkrB6ciGtxlJrUJZuDm3dzt5IHg3wuwVseooJgH0NfwTbQ6tXtvMeD1W+r+XJ9Ndl/yfYUykl0MnxzhcBInKWz9PrfVRgfWYAEQOkoNiHF/VZ1FLP0Aae3V7looDDJDSl9zTW1qwESxqQEhZj230+Ym17spLCvqeeEMU2pQX+nXFIjwaQeMn0lzAPaoBIxLa/p5WX2XOgt0Ys137OO2+XO4ClBl5e/1VSUnRGuzKu1YBoBZyeO7I1C0WyB9kCkLAu1ZUAMqkPr2DnuN5JwtKfE67zNDL8+dUWnZyEBJZgmy4y2jOhtalbLdLLjt4qR6Zq2xOrMoSw9QL71pPplkeV7OCXjXoy4j8p6chrqOuJ6luRr14f2k7Fy9HcChy3gkvrue1hMnvYUW0glFdav3d91ADUkyi5IknppkRt3JgUiMjvJ/V8DkffdwIQfcjKkrm75W+ioorJ0GeTWkjSRM3qB9FNQ7VNRZXNAkcDldrooOQo3cAVBeBFHBUden1oF+NBAccAu+N77wHqBTS10lnLbr5lB3JrcLUHcPbMNt/LRlqOwPpgTgawh52vR2uGe61YQu7PWT1GPahKAsakgEN/fYDHewKI8MDSiUmvckK7uurIYRKylTXZTOqeQQGEp59yg3HUTBx18j9iWzZpdQJLq3r6DmQsSzfPKuKjijQhQZor8sce8KjZi1hgwqg7RO8BgJ4xu3sj9j33zzd87yXhLbaxxwo+V1gGKkGdx5DgBICaIWm2oaci8gEeX5aEBdi9F9nZqEHIXNZsbHkA6d6CBN/euqcuv6anyr+Rj80qDR4M8JywNQb8HpqUJHMs3cEyaCibWSbVs/jZANsXqiaTtliH17UNg0nqvFfvZMC90m7P72qA09PZ3mOx7jF0HQgFJddaJce116U2ZdF7zIx6MYUu+Zf7TfeWaQnrYB1foIQF2M1i1oxjYN0gaFViaRCRB8soblfaHWhQqVm/wwGPLChyMsDEAhso4Knd9zd3iXkh8rW1qmNKt3DxDdPls7rMl9EeTdvqbNd9PDBuu+Xe2jtro+cgpxt+19tY2CsftUDGy4Mk1HtCPCDxAKc1NhgOSCWsR+HqQXUyIMiGHHcAxxcEID1vuB5RKw/VC4AfsbY30VqlJT9EASzaayt0yAmWZJUNkLDKGINaoNakxe8xB6J7BaDkBW0RY+VCdP8FKoeVd7DqxLh0TLYaFb1D+xYG9BJG0mMUuQfY9lStWZWRek/o17gXRHrMMnvAs+zXEevKsEHJVdoH7DVdDI7rM0lYGeuyTMZ2jKz822KqWKLU2aDOCdekvDzMI7aDf2bY1tuetmpVc5SFODmfdXmjNLDL6EsGf4ssxEp6SgsbyQhmsfmtXhDtWVYrbbUS4oMALVk+rNcDd8iwe+WYFmCEjoCM0O+r5c394MprV7sfi31k+A4OPeDOhjRWA+xQ2bv6DJFSW0+Qe1xfGAPxphBq00R5nQH8gLU+XhjIWRwEZ/H4zkJa0m6pGixCZQPrBJzsVNUVHBPW1R6zWsTl8cxY18uv7vNbT6Q3Rt/KA2IQgUSJJk/i++i8T16ErGUobcWfhFSWFIigEaV7QQfdcEjtHchUG1qFjrWtC1S8fofaTB2vIx1oT2L0zgddeGLN+AkNRcNiOYy1DZI1a+i4vnAGYm0KmZuYcO0LkWW85aC+YD1bXC6Kk2AnkyFTWKMurXJNfRjoPIgED+9DggkEoLxGuedXDyLAZvStjjAz1nkxz5qcsXVRzZVDzTLbG40DNAtwgQpAatF1rdlsrw+UlZNrgVA2onMP8KxqpAS/q5wqAMrwGwRbo3314w2wLdvJkLrl628FpTKZflmCy/JZlu+mA0S+PgDJTsQYRJQ/ia/Pizx1xjqJKiWlUcggVte3ZWOtS3H1Z2tC2UU8rvI4z+L7s/ifC7YlhMD+RqtvEkhgj76VcqN87eShIt+zjG0C3Gpos+aty/WYDBm1NuxJH6KhEo3fEljVjAWp43e1KjHJQuR+y5XHbw2fYoPhWeAhxzYQ/IZQ3QycjedlgbaVlynP6SL26EWByaTB9Uigf1kA0pq1oVnIJKSEciA/4HmuRhBy1z2eNXLZbGZp5ToXEmHPv9b0X5frJhXRPBiRzUWBn5V8vyVC/V4udg5F7UsVKoei1SekD1OrszxUGEuoMAF9gPEbv6+epFOb8+2BgQ6oarNNYEiOjL6Z8z3z3+XtB9RnhVgys+wXm7H2t5qExD0pFnJYlXxFDES7dybxphZAOC9Aclk+P4rFWpLlOvkZFOvQORAd/QzYzpuAIZ/oZGFZlA/L50cBII/L8yg/SyLKsazn87G0NuxD27xbvmNRSUzy4GFHykJFNhmwtSvRAEPw7eR1wLGnkW4vM7F+bh36nguDZRBKDnjCed3k/QTj55opUIdkBwN8rYZASxmwEvpSIZjVz6y+j4N9fOEMRC/ionVb0UNJjmsLCXmIFy+lYlg4YO09ZdX363nXwHauAxnaq4xoJR3+BODj8n0BkEfBRJKKhLLBvr5n0LAi5wB71gYbWnWEXV1jzYPhSgQesLUsgRGAWLctH5dVEfQas0lqxodkrFUYUT5guylo8CCHhXlgUGMYntwHYy+wAyRWpZfVdyJzj7pIICm5e2PTfoDHl8tALFNDnfQq7ONRRILF5+oBa+PFi/idHOAUxOMMxuESFTBEQ+6SwAIDQLKIah4XALkA+LB8PGCdE3nEuoJML/zvGTBgMEPJIPW8kGjIFTDkktqUPaocelqCCfAtT6Aey1v29ni5EKvqi9C2Zde25hntJHKPRUwt0d7a/3uBwvqZJWUlY98dNiVfsYRlLQTJLApwBCPiK7plSabfLX9zdiQpYDsFUB4KJzx3qUdscyZSwioVYiQeh5SwflXfl9yI7A3xKj6+STARshRVAMPKQwBr23Q9UKpmqtcCAlSiZKp87znvet5cb2FN44GUN0mvx1E3YTsf49b12GOpbzltexbxLaBgQx2o/ewAjXe8bo6ufv9zCEpC0nbepet4XBhGxLX/o8yIuMO1G73Yft+JxzQaWvhJbfqogECXaOq8iZylrGUJabpW8iAFLD4sjKR8fVZgIpPs2iWUv7YeEDWm1jp0AXsGd1TAruUq3XHuDZjSI4WD82Eldmvru2VVoiUZbQOe1MHodV3fekgD/hwU70Pb6njmoK/5mLghn1nl07gBKFpGijiA49uQsPQiKl3hpeqqbLD75dAttgQkDu9HATYwDp2w/K+UsUpOJBv6NovbigYbKY1m0lNHVlo94rkaS359ESxF6q7olAy+JvDwSqStxLjOb1iVcxFbj6rYAAxyAKPHL8uSK+HIRjB0+mR8WNV23Dh0b4nya1F3Rn2mRoux7AEPedueT5lkPXOHJHULUBxg8Q1LWNKaRNbaz2KRXQQjOWPdAX4nfg4hYclLAo7MeWgZw8qPyMMJsEs3ZemfBJFHwTAeBDspFWWyARGwZ61/jeChK5aiAgg9PEvPOR/U/w0OCKECGLpk25tq6THrVle5d4B7lT9Wkrom5bZmudf+LzeApPVcbgUO7//k/obBeiwn7VSRnA6g+N4lrEXGIicilZGnnIktJ9HJMl05O9sqq5QLV/opwWAso9LOR/GY5LzyqBaw7kYveY9ZyFUFSGRDZBLylRyzmb8W+UrlNbQlSDQYQnSkKWmSqKVGL19hyUnB+R+vIooqQY0FEC0N35JiapYmcP6vBiJ75Cp0SlP8RmeEzj1pFqdLaz0AOYDiYCDVS0pYg4juB7Hxii/RHdad5vKwhyFVlJ9LLyUrCUvOIQYDYORjkpHmRYDDI9ZdrxJk5Cx3a67I18o85OhZj13oBkA9X9xrfqv5GsH4X80otO+YBy41KaeViJaVYJLxWuuSYJemzp2M1BvjqyUiGSx9TpnUcn2QVkJJvGdJAfKTjHUAxQEgm+sPf8r8+5+DBo8kWEIU0X1ZcHLhSdfU8j+eQaPUy894HuIkN+CoDiHJPIB1jqXkUHQFlUyoy47XC7ZWLFIvXx1YX1nynNSBWcCjMMY7xeR0PmkwWJ7XxOaxCGDrmVQDHct3yZKwUAELVNiB1zlfC54y1lMYZ8VeWq6+1lybHkmqd/Ih37gmyGCbstFTViZCyVoHeBwA0qWb6glvUUUkUFHkgGeDRBn16mhL2o4EbHMuUvJ4wDYpC3HbBXiyksRWg2eWj0dFxUvuZoI9ZCq/oYzwuUCElBR4Jz5G1JPcuvLNmg1jNZlZ9x/gzwfxbN3l//YmtlsSU6s0WIOS9qDSUk5tfdTcZmt/V7N/r71mvevBcxIo788s9qlkok975Kc//nR0gx8AUmUh+kCXvjcSRCRDkZUdSbAJz7tK3ofWrmXSHCpCLtYprKJnbVWhQUGa0F2Mw0BW56w251eW+0DloBgFC9GyoOWEDINlWHYV3uEvGw+tYVBaaup1hW0d3FZ+xJutzg5AljVxEYw7GYFJz+NqrZ9WDsljUnsZSA1E5GsxO9LlcR0AchOIkNg0QbAHKICRMhMqEgUr4LGisqgYRZFWilljARJ5G1GxpiJBQAEHsC3lTNbh+I3O/pDAak18k7r8ANugUHsr6WomnVfRfSMwon7LssQDkVrCmTulHDgynFwThVlHrCuTepPee2aM1Pyp9NyUW3y8rKZLCR4z7IbS1X0e7OMAkL2HDdTBSootkHFoy2Q3nMj1ouQsuXDPKkoq+YvyHC/YzlhPqDc3WRYKyfi7r1K6UsOgdOJzFhKjBhAd0cpkeobtZUWVw9szMvriMLoAAASVSURBVLQOzFCRWCLsPoXWOuXKIW7JQTXL8/L8y4TNLKTZXpmqBiYtGxYL+F/iJmyxVMsluebKe1zf6PWqb/DCQqxFR85CDMaCtxrFLPlCbwYZ4VoTC4OKpGqHl94gM7YdtTrCw9fIPlQJr06ga/nKkqqk3FXKeHXvR4sNWL0nno1/qEgrVulvb7DTExhZBzHD7oGoWdzAWfc9bKPHRr1VjnwLgGhmIefkFGeGj3huvpWD2A4WcjCQPilrARJrc5BDr2tRn964MKSDsrhlniQZkomn13uln1a9vbUJvwXZSgJ3wro0OWE911y/RwVwdKURY2sho63CLcNAa8oelFSmAxGvc74FGr3eVpYvlhfQWA6/t/Rs9MxF9+xZdF4GlaCs9/57cilBvc/H9Y1f8S1u9L/+N8a//3dU23CtCLEWMVk+QC1rB8sRVAOCjhj13yVDrvrqweMv//oX/Mt//JfaYSvnulhjUr3DSVdS9TrkWkPAasyFK9F374jW2oCkFmjkiiRmPUeLMVmeX97PtDuANfMkGMEa47ZqLGuPed36csjTao385V//cpy2h4T1KrLWrY+hS78VCf1WlAb4I0PZYUrfEuuwpCygPgBKa+9FsipmmPfiay1ptSYA1mZu177usT2hHWuuZVFSMwK0pM2XNv3VKq48eTArmamnM3wPiMg5HaVHqkhYn/DcfCuNRY9S3gNA3hRIqsDxkgN7cQ6uJfis8Z74HoCjAiKeJKT7bO4FeNwrIDlh2z/SM5bVkoI8W/bQESxQY8335kos7yevt4Vv2Iu9spY3O13nZKqT+l4IIvL2iyv1Jzw7V08HgBwA8l5g8qZJ6eX+Q8eB8c2DRgNEAL8AojCME662/D8KEJEAIq1O9iS5vcO/Z7bHXvZR+xvNRjPsBHnNpddjva211wMwnlwr/amkNf1LWZHOrxTpqiTTz1hbAR1J9ANAjut7vyrVWncGeNwLaav8nS6z7SnzpAawtCqUemWh1kGtD02rQbBlttgCrFp+wvudvn897nVy2MdrAIjOjxUp66Lu9+gF+Yav4XgJjmvn4QFs+0XOWFff5AVAZvE5OCzk1oCnpxO7JV31SEPWc54UgOSdYLW3vNhz5a2Nep2VlPVa82o8OU878b5EJjuuA0CO6xu/NIg8qqi0uCxLq/7wQgC5FRhaf9v6O4t9WFV9vAMo9kpYVqKesbXgSbCbX1+a+2g9FmvwFgNH7uNbvg4J67i6r8rcEClTyZkg0j/L8raqWZm/xnq+pfLPy39YB2XPkKnW/XIDuDSItaq/rJL11wQP67Wx2NABHgcDOa7jqkoYOiKVBoLa18rq7/gSAhjqOMCli7R1QFsW9fSKr7U3tyTBLh+2kvtvNUPEHYJ1gMfBQI7ruCwWItmD59TqWb5/bevOKpG1mhXfen/VphVadimfa+iUaZd/gMcBIMd1XC0Q0UCiezOAeunu12R5YTWYfs5EsSVnySsfh/ZxHQByXF8rG7HAAWh3hX9NV890wLcGjycwOwDjuI7ruI7ruI7ruI7ruI7ruI7ruI7ruI7ruI7ruI6rev3/J+ZjwBEXW7AAAAAASUVORK5CYII=
p222
sg23
Vmonster_in_forest
p223
sg25
g26
((I2014
I8
I23
I7
I32
I22
I5
I235
I0
tp224
(dp225
tp226
Rp227
sg31
(lp228
S'Twine.image'
p229
asg33
g227
sbsa(dp230
g14
I00
sg15
(lp231
F850.0
aF10.0
asg17
(itiddlywiki
Tiddler
p232
(dp233
g21
VPiece of wood, right there. Man made.\u000a\u000aA spear?\u000aA 
p234
sg23
Vweapon
p235
sg25
g26
((I2014
I8
I23
I7
I44
I45
I5
I235
I0
tp236
(dp237
tp238
Rp239
sg31
(lp240
sg33
g26
((I2014
I8
I23
I7
I43
I23
I5
I235
I0
tp241
(dp242
tp243
Rp244
sbsasS'scale'
p245
F1.0
sS'snapping'
p246
I01
ss.